
XC8Application1.elf:     file format elf32-avr

Sections:
Idx Name          Size      VMA       LMA       File off  Algn
  0 .data         00000000  00800100  00800100  0000162d  2**0
                  ALLOC, LOAD, DATA
  1 .text         000000da  00000000  00000000  000000f4  2**1
                  CONTENTS, ALLOC, LOAD, READONLY, CODE
  2 .bss          00000001  00800100  00800100  0000162d  2**0
                  ALLOC
  3 .comment      0000005b  00000000  00000000  0000162d  2**0
                  CONTENTS, READONLY
  4 .debug_aranges 00000150  00000000  00000000  00001688  2**0
                  CONTENTS, READONLY, DEBUGGING
  5 .debug_info   0000225e  00000000  00000000  000017d8  2**0
                  CONTENTS, READONLY, DEBUGGING
  6 .debug_abbrev 00000b7c  00000000  00000000  00003a36  2**0
                  CONTENTS, READONLY, DEBUGGING
  7 .debug_line   00000f2e  00000000  00000000  000045b2  2**0
                  CONTENTS, READONLY, DEBUGGING
  8 .debug_frame  00000398  00000000  00000000  000054e0  2**2
                  CONTENTS, READONLY, DEBUGGING
  9 .debug_str    0000028a  00000000  00000000  00005878  2**0
                  CONTENTS, READONLY, DEBUGGING
 10 .debug_loc    00001369  00000000  00000000  00005b02  2**0
                  CONTENTS, READONLY, DEBUGGING
 11 .debug_ranges 00000110  00000000  00000000  00006e6b  2**0
                  CONTENTS, READONLY, DEBUGGING
 12 .text         00000004  00001524  00001524  00001618  2**1
                  CONTENTS, ALLOC, LOAD, READONLY, CODE
 13 .note.gnu.avr.deviceinfo 00000040  00000000  00000000  00006f7c  2**2
                  CONTENTS, READONLY, DEBUGGING
 14 .text.iniciarMEF 0000001a  00001502  00001502  000015f6  2**1
                  CONTENTS, ALLOC, LOAD, READONLY, CODE
 15 .text.actualizarMEF 000004ee  00000136  00000136  0000022a  2**1
                  CONTENTS, ALLOC, LOAD, READONLY, CODE
 16 .progmemx.data 0000001c  0000011a  0000011a  0000020e  2**0
                  CONTENTS, ALLOC, LOAD, READONLY, PROGMEMX
 17 .text.actualizarSalida 00000140  00000bd6  00000bd6  00000cca  2**1
                  CONTENTS, ALLOC, LOAD, READONLY, CODE
 18 .bss.isNumber 00000002  00800117  00800117  0000162d  2**0
                  ALLOC
 19 .bss.ciclo_fin 00000002  00800119  00800119  0000162d  2**0
                  ALLOC
 20 .bss.contador 00000002  0080011b  0080011b  0000162d  2**0
                  ALLOC
 21 .bss.keypad_out 00000006  00800111  00800111  0000162d  2**0
                  ALLOC
 22 .bss.ticks    00000001  0080012b  0080012b  0000162d  2**0
                  ALLOC
 23 .bss.number   00000002  0080011d  0080011d  0000162d  2**0
                  ALLOC
 24 .bss.inicioRapido 00000002  0080011f  0080011f  0000162d  2**0
                  ALLOC
 25 .bss.fin      00000002  00800121  00800121  0000162d  2**0
                  ALLOC
 26 .bss.stop     00000002  00800123  00800123  0000162d  2**0
                  ALLOC
 27 .bss.start    00000002  00800125  00800125  0000162d  2**0
                  ALLOC
 28 .bss.keypad_flag 00000002  00800127  00800127  0000162d  2**0
                  ALLOC
 29 .bss.clear    00000002  00800129  00800129  0000162d  2**0
                  ALLOC
 30 .rodata       00000010  00800101  00001528  0000161c  2**0
                  CONTENTS, ALLOC, LOAD, DATA
 31 .text.leerTeclado 0000016a  00000a6c  00000a6c  00000b60  2**1
                  CONTENTS, ALLOC, LOAD, READONLY, CODE
 32 .text.KEYPAD_Scan 00000040  00001314  00001314  00001408  2**1
                  CONTENTS, ALLOC, LOAD, READONLY, CODE
 33 .data.Last_valid_key.1738 00000001  0080012c  00001538  0000162c  2**0
                  CONTENTS, ALLOC, LOAD, DATA
 34 .bss.Old_key.1737 00000001  0080012d  0080012d  0000162d  2**0
                  ALLOC
 35 .text.LCDsendChar 00000130  00000d16  00000d16  00000e0a  2**1
                  CONTENTS, ALLOC, LOAD, READONLY, CODE
 36 .text.LCDsendCommand 00000128  00000e46  00000e46  00000f3a  2**1
                  CONTENTS, ALLOC, LOAD, READONLY, CODE
 37 .text.LCDclr  00000008  0000151c  0000151c  00001610  2**1
                  CONTENTS, ALLOC, LOAD, READONLY, CODE
 38 .text.LCDstring 00000030  0000142a  0000142a  0000151e  2**1
                  CONTENTS, ALLOC, LOAD, READONLY, CODE
 39 .text.LCDGotoXY 0000001e  000014aa  000014aa  0000159e  2**1
                  CONTENTS, ALLOC, LOAD, READONLY, CODE
 40 .text.LCDdefinechar 0000006a  000011a2  000011a2  00001296  2**1
                  CONTENTS, ALLOC, LOAD, READONLY, CODE
 41 .text.LCDinit 00000100  00000f6e  00000f6e  00001062  2**1
                  CONTENTS, ALLOC, LOAD, READONLY, CODE
 42 .progmemx.data.LcdCustomChar 00000040  000000da  000000da  000001ce  2**0
                  CONTENTS, ALLOC, LOAD, READONLY, PROGMEMX
 43 .text.init_timer 0000001c  000014e6  000014e6  000015da  2**1
                  CONTENTS, ALLOC, LOAD, READONLY, CODE
 44 .text.__vector_14 0000001e  000014c8  000014c8  000015bc  2**1
                  CONTENTS, ALLOC, LOAD, READONLY, CODE
 45 .text.init_ports 00000050  000012c4  000012c4  000013b8  2**1
                  CONTENTS, ALLOC, LOAD, READONLY, CODE
 46 .text.main    00000056  0000126e  0000126e  00001362  2**1
                  CONTENTS, ALLOC, LOAD, READONLY, CODE
 47 .bss.flag10ms 00000001  0080012e  0080012e  0000162d  2**0
                  ALLOC
 48 .text.libgcc.div 00000028  0000145a  0000145a  0000154e  2**1
                  CONTENTS, ALLOC, LOAD, READONLY, CODE
 49 .text.libgcc.div 00000028  00001482  00001482  00001576  2**1
                  CONTENTS, ALLOC, LOAD, READONLY, CODE
 50 .text.avrlibc 00000032  000013f8  000013f8  000014ec  2**1
                  CONTENTS, ALLOC, LOAD, READONLY, CODE
 51 .text.avrlibc 00000062  0000120c  0000120c  00001300  2**1
                  CONTENTS, ALLOC, LOAD, READONLY, CODE
 52 .text.avrlibc 00000448  00000624  00000624  00000718  2**1
                  CONTENTS, ALLOC, LOAD, READONLY, CODE
 53 .text.avrlibc 00000036  0000138c  0000138c  00001480  2**1
                  CONTENTS, ALLOC, LOAD, READONLY, CODE
 54 .text.avrlibc 00000078  0000112a  0000112a  0000121e  2**1
                  CONTENTS, ALLOC, LOAD, READONLY, CODE
 55 .text.avrlibc 000000bc  0000106e  0000106e  00001162  2**1
                  CONTENTS, ALLOC, LOAD, READONLY, CODE
 56 .text.libgcc.prologue 00000038  00001354  00001354  00001448  2**1
                  CONTENTS, ALLOC, LOAD, READONLY, CODE
 57 .text.libgcc.prologue 00000036  000013c2  000013c2  000014b6  2**1
                  CONTENTS, ALLOC, LOAD, READONLY, CODE

Disassembly of section .text:

00000000 <__vectors>:
   0:	0c 94 43 00 	jmp	0x86	; 0x86 <__ctors_end>
   4:	0c 94 92 0a 	jmp	0x1524	; 0x1524 <__bad_interrupt>
   8:	0c 94 92 0a 	jmp	0x1524	; 0x1524 <__bad_interrupt>
   c:	0c 94 92 0a 	jmp	0x1524	; 0x1524 <__bad_interrupt>
  10:	0c 94 92 0a 	jmp	0x1524	; 0x1524 <__bad_interrupt>
  14:	0c 94 92 0a 	jmp	0x1524	; 0x1524 <__bad_interrupt>
  18:	0c 94 92 0a 	jmp	0x1524	; 0x1524 <__bad_interrupt>
  1c:	0c 94 92 0a 	jmp	0x1524	; 0x1524 <__bad_interrupt>
  20:	0c 94 92 0a 	jmp	0x1524	; 0x1524 <__bad_interrupt>
  24:	0c 94 92 0a 	jmp	0x1524	; 0x1524 <__bad_interrupt>
  28:	0c 94 92 0a 	jmp	0x1524	; 0x1524 <__bad_interrupt>
  2c:	0c 94 92 0a 	jmp	0x1524	; 0x1524 <__bad_interrupt>
  30:	0c 94 92 0a 	jmp	0x1524	; 0x1524 <__bad_interrupt>
  34:	0c 94 92 0a 	jmp	0x1524	; 0x1524 <__bad_interrupt>
  38:	0c 94 64 0a 	jmp	0x14c8	; 0x14c8 <__vector_14>
  3c:	0c 94 92 0a 	jmp	0x1524	; 0x1524 <__bad_interrupt>
  40:	0c 94 92 0a 	jmp	0x1524	; 0x1524 <__bad_interrupt>
  44:	0c 94 92 0a 	jmp	0x1524	; 0x1524 <__bad_interrupt>
  48:	0c 94 92 0a 	jmp	0x1524	; 0x1524 <__bad_interrupt>
  4c:	0c 94 92 0a 	jmp	0x1524	; 0x1524 <__bad_interrupt>
  50:	0c 94 92 0a 	jmp	0x1524	; 0x1524 <__bad_interrupt>
  54:	0c 94 92 0a 	jmp	0x1524	; 0x1524 <__bad_interrupt>
  58:	0c 94 92 0a 	jmp	0x1524	; 0x1524 <__bad_interrupt>
  5c:	0c 94 92 0a 	jmp	0x1524	; 0x1524 <__bad_interrupt>
  60:	0c 94 92 0a 	jmp	0x1524	; 0x1524 <__bad_interrupt>
  64:	0c 94 92 0a 	jmp	0x1524	; 0x1524 <__bad_interrupt>

00000068 <.dinit>:
  68:	01 00       	.word	0x0001	; ????
  6a:	01 01       	movw	r0, r2
  6c:	80 01       	movw	r16, r0
  6e:	01 01       	movw	r0, r2
  70:	11 00       	.word	0x0011	; ????
  72:	15 28       	or	r1, r5
  74:	01 11       	cpse	r16, r1
  76:	01 2c       	mov	r0, r1
  78:	80 01       	movw	r16, r0
  7a:	2c 01       	movw	r4, r24
  7c:	2d 00       	.word	0x002d	; ????
  7e:	15 38       	cpi	r17, 0x85	; 133
  80:	01 2d       	mov	r16, r1
  82:	01 2f       	mov	r16, r17
  84:	80 00       	.word	0x0080	; ????

00000086 <__ctors_end>:
  86:	11 24       	eor	r1, r1
  88:	1f be       	out	0x3f, r1	; 63
  8a:	cf ef       	ldi	r28, 0xFF	; 255
  8c:	d8 e0       	ldi	r29, 0x08	; 8
  8e:	de bf       	out	0x3e, r29	; 62
  90:	cd bf       	out	0x3d, r28	; 61

00000092 <__do_copy_data>:
  92:	e8 e6       	ldi	r30, 0x68	; 104
  94:	f0 e0       	ldi	r31, 0x00	; 0
  96:	40 e0       	ldi	r20, 0x00	; 0
  98:	17 c0       	rjmp	.+46     	; 0xc8 <__do_clear_bss+0x8>
  9a:	b5 91       	lpm	r27, Z+
  9c:	a5 91       	lpm	r26, Z+
  9e:	35 91       	lpm	r19, Z+
  a0:	25 91       	lpm	r18, Z+
  a2:	05 91       	lpm	r16, Z+
  a4:	07 fd       	sbrc	r16, 7
  a6:	0c c0       	rjmp	.+24     	; 0xc0 <__do_clear_bss>
  a8:	95 91       	lpm	r25, Z+
  aa:	85 91       	lpm	r24, Z+
  ac:	ef 01       	movw	r28, r30
  ae:	f9 2f       	mov	r31, r25
  b0:	e8 2f       	mov	r30, r24
  b2:	05 90       	lpm	r0, Z+
  b4:	0d 92       	st	X+, r0
  b6:	a2 17       	cp	r26, r18
  b8:	b3 07       	cpc	r27, r19
  ba:	d9 f7       	brne	.-10     	; 0xb2 <__do_copy_data+0x20>
  bc:	fe 01       	movw	r30, r28
  be:	04 c0       	rjmp	.+8      	; 0xc8 <__do_clear_bss+0x8>

000000c0 <__do_clear_bss>:
  c0:	1d 92       	st	X+, r1
  c2:	a2 17       	cp	r26, r18
  c4:	b3 07       	cpc	r27, r19
  c6:	e1 f7       	brne	.-8      	; 0xc0 <__do_clear_bss>
  c8:	e5 38       	cpi	r30, 0x85	; 133
  ca:	f4 07       	cpc	r31, r20
  cc:	31 f7       	brne	.-52     	; 0x9a <__do_copy_data+0x8>
  ce:	0e 94 37 09 	call	0x126e	; 0x126e <main>
  d2:	0c 94 6b 00 	jmp	0xd6	; 0xd6 <_exit>

000000d6 <_exit>:
  d6:	f8 94       	cli

000000d8 <__stop_program>:
  d8:	ff cf       	rjmp	.-2      	; 0xd8 <__stop_program>

Disassembly of section .text:

00001524 <__bad_interrupt>:
    1524:	0c 94 00 00 	jmp	0	; 0x0 <__TEXT_REGION_ORIGIN__>

Disassembly of section .text.iniciarMEF:

00001502 <iniciarMEF>:
//var bool
static int isNumber;
void iniciarMEF()
{
	
	est_actual=INICIAL;
    1502:	10 92 00 01 	sts	0x0100, r1	; 0x800100 <__DATA_REGION_ORIGIN__>
	contador = 0;
    1506:	10 92 1c 01 	sts	0x011C, r1	; 0x80011c <contador+0x1>
    150a:	10 92 1b 01 	sts	0x011B, r1	; 0x80011b <contador>
	number = 0;
    150e:	10 92 1e 01 	sts	0x011E, r1	; 0x80011e <number+0x1>
    1512:	10 92 1d 01 	sts	0x011D, r1	; 0x80011d <number>
	ticks = 0;
    1516:	10 92 2b 01 	sts	0x012B, r1	; 0x80012b <ticks>
    151a:	08 95       	ret

Disassembly of section .text.actualizarMEF:

00000136 <actualizarMEF>:
}
void actualizarMEF(uint8_t kf, uint8_t pkey)
{
	// LEER ENTRADAS
	if (kf != 0) {
 136:	88 23       	and	r24, r24
 138:	09 f4       	brne	.+2      	; 0x13c <actualizarMEF+0x6>
 13a:	be c0       	rjmp	.+380    	; 0x2b8 <actualizarMEF+0x182>
		keypad_flag = true;
 13c:	81 e0       	ldi	r24, 0x01	; 1
 13e:	90 e0       	ldi	r25, 0x00	; 0
 140:	90 93 28 01 	sts	0x0128, r25	; 0x800128 <keypad_flag+0x1>
 144:	80 93 27 01 	sts	0x0127, r24	; 0x800127 <keypad_flag>
		switch (pkey) {
 148:	61 34       	cpi	r22, 0x41	; 65
 14a:	79 f0       	breq	.+30     	; 0x16a <actualizarMEF+0x34>
 14c:	38 f4       	brcc	.+14     	; 0x15c <actualizarMEF+0x26>
 14e:	63 32       	cpi	r22, 0x23	; 35
 150:	09 f4       	brne	.+2      	; 0x154 <actualizarMEF+0x1e>
 152:	b2 c0       	rjmp	.+356    	; 0x2b8 <actualizarMEF+0x182>
 154:	6a 32       	cpi	r22, 0x2A	; 42
 156:	09 f4       	brne	.+2      	; 0x15a <actualizarMEF+0x24>
 158:	af c0       	rjmp	.+350    	; 0x2b8 <actualizarMEF+0x182>
 15a:	73 c0       	rjmp	.+230    	; 0x242 <actualizarMEF+0x10c>
 15c:	63 34       	cpi	r22, 0x43	; 67
 15e:	d9 f1       	breq	.+118    	; 0x1d6 <actualizarMEF+0xa0>
 160:	f8 f0       	brcs	.+62     	; 0x1a0 <actualizarMEF+0x6a>
 162:	64 34       	cpi	r22, 0x44	; 68
 164:	09 f4       	brne	.+2      	; 0x168 <actualizarMEF+0x32>
 166:	52 c0       	rjmp	.+164    	; 0x20c <actualizarMEF+0xd6>
 168:	6c c0       	rjmp	.+216    	; 0x242 <actualizarMEF+0x10c>
			case('A'): start = true; stop = false; fin = false; inicioRapido = false; puerta = false; clear = false; isNumber = false; break;
 16a:	81 e0       	ldi	r24, 0x01	; 1
 16c:	90 e0       	ldi	r25, 0x00	; 0
 16e:	90 93 26 01 	sts	0x0126, r25	; 0x800126 <start+0x1>
 172:	80 93 25 01 	sts	0x0125, r24	; 0x800125 <start>
 176:	10 92 24 01 	sts	0x0124, r1	; 0x800124 <stop+0x1>
 17a:	10 92 23 01 	sts	0x0123, r1	; 0x800123 <stop>
 17e:	10 92 22 01 	sts	0x0122, r1	; 0x800122 <fin+0x1>
 182:	10 92 21 01 	sts	0x0121, r1	; 0x800121 <fin>
 186:	10 92 20 01 	sts	0x0120, r1	; 0x800120 <inicioRapido+0x1>
 18a:	10 92 1f 01 	sts	0x011F, r1	; 0x80011f <inicioRapido>
 18e:	10 92 2a 01 	sts	0x012A, r1	; 0x80012a <clear+0x1>
 192:	10 92 29 01 	sts	0x0129, r1	; 0x800129 <clear>
 196:	10 92 18 01 	sts	0x0118, r1	; 0x800118 <isNumber+0x1>
 19a:	10 92 17 01 	sts	0x0117, r1	; 0x800117 <isNumber>
 19e:	8c c0       	rjmp	.+280    	; 0x2b8 <actualizarMEF+0x182>
			case('B'): start = false; stop = true; fin = false; inicioRapido = false; puerta = false; clear = true; isNumber = false; break;
 1a0:	10 92 26 01 	sts	0x0126, r1	; 0x800126 <start+0x1>
 1a4:	10 92 25 01 	sts	0x0125, r1	; 0x800125 <start>
 1a8:	81 e0       	ldi	r24, 0x01	; 1
 1aa:	90 e0       	ldi	r25, 0x00	; 0
 1ac:	90 93 24 01 	sts	0x0124, r25	; 0x800124 <stop+0x1>
 1b0:	80 93 23 01 	sts	0x0123, r24	; 0x800123 <stop>
 1b4:	10 92 22 01 	sts	0x0122, r1	; 0x800122 <fin+0x1>
 1b8:	10 92 21 01 	sts	0x0121, r1	; 0x800121 <fin>
 1bc:	10 92 20 01 	sts	0x0120, r1	; 0x800120 <inicioRapido+0x1>
 1c0:	10 92 1f 01 	sts	0x011F, r1	; 0x80011f <inicioRapido>
 1c4:	90 93 2a 01 	sts	0x012A, r25	; 0x80012a <clear+0x1>
 1c8:	80 93 29 01 	sts	0x0129, r24	; 0x800129 <clear>
 1cc:	10 92 18 01 	sts	0x0118, r1	; 0x800118 <isNumber+0x1>
 1d0:	10 92 17 01 	sts	0x0117, r1	; 0x800117 <isNumber>
 1d4:	71 c0       	rjmp	.+226    	; 0x2b8 <actualizarMEF+0x182>
			case('C'): start = false; stop = false; fin = false; inicioRapido = true; puerta = false; clear = false; isNumber = false; break;
 1d6:	10 92 26 01 	sts	0x0126, r1	; 0x800126 <start+0x1>
 1da:	10 92 25 01 	sts	0x0125, r1	; 0x800125 <start>
 1de:	10 92 24 01 	sts	0x0124, r1	; 0x800124 <stop+0x1>
 1e2:	10 92 23 01 	sts	0x0123, r1	; 0x800123 <stop>
 1e6:	10 92 22 01 	sts	0x0122, r1	; 0x800122 <fin+0x1>
 1ea:	10 92 21 01 	sts	0x0121, r1	; 0x800121 <fin>
 1ee:	81 e0       	ldi	r24, 0x01	; 1
 1f0:	90 e0       	ldi	r25, 0x00	; 0
 1f2:	90 93 20 01 	sts	0x0120, r25	; 0x800120 <inicioRapido+0x1>
 1f6:	80 93 1f 01 	sts	0x011F, r24	; 0x80011f <inicioRapido>
 1fa:	10 92 2a 01 	sts	0x012A, r1	; 0x80012a <clear+0x1>
 1fe:	10 92 29 01 	sts	0x0129, r1	; 0x800129 <clear>
 202:	10 92 18 01 	sts	0x0118, r1	; 0x800118 <isNumber+0x1>
 206:	10 92 17 01 	sts	0x0117, r1	; 0x800117 <isNumber>
 20a:	56 c0       	rjmp	.+172    	; 0x2b8 <actualizarMEF+0x182>
			case('D'): start = false; stop = true; fin = false; inicioRapido = false; puerta = false; clear = false; isNumber = false; break;
 20c:	10 92 26 01 	sts	0x0126, r1	; 0x800126 <start+0x1>
 210:	10 92 25 01 	sts	0x0125, r1	; 0x800125 <start>
 214:	81 e0       	ldi	r24, 0x01	; 1
 216:	90 e0       	ldi	r25, 0x00	; 0
 218:	90 93 24 01 	sts	0x0124, r25	; 0x800124 <stop+0x1>
 21c:	80 93 23 01 	sts	0x0123, r24	; 0x800123 <stop>
 220:	10 92 22 01 	sts	0x0122, r1	; 0x800122 <fin+0x1>
 224:	10 92 21 01 	sts	0x0121, r1	; 0x800121 <fin>
 228:	10 92 20 01 	sts	0x0120, r1	; 0x800120 <inicioRapido+0x1>
 22c:	10 92 1f 01 	sts	0x011F, r1	; 0x80011f <inicioRapido>
 230:	10 92 2a 01 	sts	0x012A, r1	; 0x80012a <clear+0x1>
 234:	10 92 29 01 	sts	0x0129, r1	; 0x800129 <clear>
 238:	10 92 18 01 	sts	0x0118, r1	; 0x800118 <isNumber+0x1>
 23c:	10 92 17 01 	sts	0x0117, r1	; 0x800117 <isNumber>
 240:	3b c0       	rjmp	.+118    	; 0x2b8 <actualizarMEF+0x182>
			case('*'): break;
			case('#'): break;
			default: // Número
			isNumber = true;
 242:	81 e0       	ldi	r24, 0x01	; 1
 244:	90 e0       	ldi	r25, 0x00	; 0
 246:	90 93 18 01 	sts	0x0118, r25	; 0x800118 <isNumber+0x1>
 24a:	80 93 17 01 	sts	0x0117, r24	; 0x800117 <isNumber>
			if (est_actual == COCINANDO)
 24e:	80 91 00 01 	lds	r24, 0x0100	; 0x800100 <__DATA_REGION_ORIGIN__>
 252:	82 30       	cpi	r24, 0x02	; 2
 254:	09 f4       	brne	.+2      	; 0x258 <actualizarMEF+0x122>
 256:	e5 c1       	rjmp	.+970    	; 0x622 <__EEPROM_REGION_LENGTH__+0x222>
				return;
			if (pkey >= '0' && pkey <= '9') {
 258:	80 ed       	ldi	r24, 0xD0	; 208
 25a:	86 0f       	add	r24, r22
 25c:	8a 30       	cpi	r24, 0x0A	; 10
 25e:	c0 f4       	brcc	.+48     	; 0x290 <actualizarMEF+0x15a>
				number = number * 10 + (pkey - '0');
 260:	80 91 1d 01 	lds	r24, 0x011D	; 0x80011d <number>
 264:	90 91 1e 01 	lds	r25, 0x011E	; 0x80011e <number+0x1>
 268:	9c 01       	movw	r18, r24
 26a:	22 0f       	add	r18, r18
 26c:	33 1f       	adc	r19, r19
 26e:	88 0f       	add	r24, r24
 270:	99 1f       	adc	r25, r25
 272:	88 0f       	add	r24, r24
 274:	99 1f       	adc	r25, r25
 276:	88 0f       	add	r24, r24
 278:	99 1f       	adc	r25, r25
 27a:	82 0f       	add	r24, r18
 27c:	93 1f       	adc	r25, r19
 27e:	70 e0       	ldi	r23, 0x00	; 0
 280:	60 53       	subi	r22, 0x30	; 48
 282:	71 09       	sbc	r23, r1
 284:	68 0f       	add	r22, r24
 286:	79 1f       	adc	r23, r25
 288:	70 93 1e 01 	sts	0x011E, r23	; 0x80011e <number+0x1>
 28c:	60 93 1d 01 	sts	0x011D, r22	; 0x80011d <number>
			}
			start = false; stop = false; fin = false; inicioRapido = false; puerta = false; clear = false;
 290:	10 92 26 01 	sts	0x0126, r1	; 0x800126 <start+0x1>
 294:	10 92 25 01 	sts	0x0125, r1	; 0x800125 <start>
 298:	10 92 24 01 	sts	0x0124, r1	; 0x800124 <stop+0x1>
 29c:	10 92 23 01 	sts	0x0123, r1	; 0x800123 <stop>
 2a0:	10 92 22 01 	sts	0x0122, r1	; 0x800122 <fin+0x1>
 2a4:	10 92 21 01 	sts	0x0121, r1	; 0x800121 <fin>
 2a8:	10 92 20 01 	sts	0x0120, r1	; 0x800120 <inicioRapido+0x1>
 2ac:	10 92 1f 01 	sts	0x011F, r1	; 0x80011f <inicioRapido>
 2b0:	10 92 2a 01 	sts	0x012A, r1	; 0x80012a <clear+0x1>
 2b4:	10 92 29 01 	sts	0x0129, r1	; 0x800129 <clear>
			break;
		}
	}

	// ACTUALIZAR ESTADOS (Limpiado de snprintf y returns)
	switch (est_actual) {
 2b8:	80 91 00 01 	lds	r24, 0x0100	; 0x800100 <__DATA_REGION_ORIGIN__>
 2bc:	82 30       	cpi	r24, 0x02	; 2
 2be:	09 f4       	brne	.+2      	; 0x2c2 <actualizarMEF+0x18c>
 2c0:	b6 c0       	rjmp	.+364    	; 0x42e <__EEPROM_REGION_LENGTH__+0x2e>
 2c2:	28 f4       	brcc	.+10     	; 0x2ce <actualizarMEF+0x198>
 2c4:	88 23       	and	r24, r24
 2c6:	51 f0       	breq	.+20     	; 0x2dc <actualizarMEF+0x1a6>
 2c8:	81 30       	cpi	r24, 0x01	; 1
 2ca:	d1 f1       	breq	.+116    	; 0x340 <actualizarMEF+0x20a>
 2cc:	92 c1       	rjmp	.+804    	; 0x5f2 <__EEPROM_REGION_LENGTH__+0x1f2>
 2ce:	83 30       	cpi	r24, 0x03	; 3
 2d0:	09 f4       	brne	.+2      	; 0x2d4 <actualizarMEF+0x19e>
 2d2:	28 c1       	rjmp	.+592    	; 0x524 <__EEPROM_REGION_LENGTH__+0x124>
 2d4:	84 30       	cpi	r24, 0x04	; 4
 2d6:	09 f4       	brne	.+2      	; 0x2da <actualizarMEF+0x1a4>
 2d8:	6a c1       	rjmp	.+724    	; 0x5ae <__EEPROM_REGION_LENGTH__+0x1ae>
 2da:	8b c1       	rjmp	.+790    	; 0x5f2 <__EEPROM_REGION_LENGTH__+0x1f2>
		case INICIAL:
		ciclo_fin = 0;
 2dc:	10 92 1a 01 	sts	0x011A, r1	; 0x80011a <ciclo_fin+0x1>
 2e0:	10 92 19 01 	sts	0x0119, r1	; 0x800119 <ciclo_fin>
		if(start) {
 2e4:	80 91 25 01 	lds	r24, 0x0125	; 0x800125 <start>
 2e8:	90 91 26 01 	lds	r25, 0x0126	; 0x800126 <start+0x1>
 2ec:	89 2b       	or	r24, r25
 2ee:	21 f0       	breq	.+8      	; 0x2f8 <actualizarMEF+0x1c2>
			est_actual = COCINANDO;
 2f0:	82 e0       	ldi	r24, 0x02	; 2
 2f2:	80 93 00 01 	sts	0x0100, r24	; 0x800100 <__DATA_REGION_ORIGIN__>
 2f6:	7d c1       	rjmp	.+762    	; 0x5f2 <__EEPROM_REGION_LENGTH__+0x1f2>
			} else if(inicioRapido == true) {
 2f8:	80 91 1f 01 	lds	r24, 0x011F	; 0x80011f <inicioRapido>
 2fc:	90 91 20 01 	lds	r25, 0x0120	; 0x800120 <inicioRapido+0x1>
 300:	01 97       	sbiw	r24, 0x01	; 1
 302:	51 f4       	brne	.+20     	; 0x318 <actualizarMEF+0x1e2>
				number = 30;
 304:	8e e1       	ldi	r24, 0x1E	; 30
 306:	90 e0       	ldi	r25, 0x00	; 0
 308:	90 93 1e 01 	sts	0x011E, r25	; 0x80011e <number+0x1>
 30c:	80 93 1d 01 	sts	0x011D, r24	; 0x80011d <number>
				est_actual = COCINANDO;
 310:	82 e0       	ldi	r24, 0x02	; 2
 312:	80 93 00 01 	sts	0x0100, r24	; 0x800100 <__DATA_REGION_ORIGIN__>
 316:	6d c1       	rjmp	.+730    	; 0x5f2 <__EEPROM_REGION_LENGTH__+0x1f2>
			} 
			else if(isNumber == true) {
 318:	80 91 17 01 	lds	r24, 0x0117	; 0x800117 <isNumber>
 31c:	90 91 18 01 	lds	r25, 0x0118	; 0x800118 <isNumber+0x1>
 320:	01 97       	sbiw	r24, 0x01	; 1
 322:	09 f0       	breq	.+2      	; 0x326 <actualizarMEF+0x1f0>
 324:	66 c1       	rjmp	.+716    	; 0x5f2 <__EEPROM_REGION_LENGTH__+0x1f2>
			est_actual = INGRESO;
 326:	81 e0       	ldi	r24, 0x01	; 1
 328:	80 93 00 01 	sts	0x0100, r24	; 0x800100 <__DATA_REGION_ORIGIN__>
			contador++;
 32c:	80 91 1b 01 	lds	r24, 0x011B	; 0x80011b <contador>
 330:	90 91 1c 01 	lds	r25, 0x011C	; 0x80011c <contador+0x1>
 334:	01 96       	adiw	r24, 0x01	; 1
 336:	90 93 1c 01 	sts	0x011C, r25	; 0x80011c <contador+0x1>
 33a:	80 93 1b 01 	sts	0x011B, r24	; 0x80011b <contador>
 33e:	59 c1       	rjmp	.+690    	; 0x5f2 <__EEPROM_REGION_LENGTH__+0x1f2>
		}
		break;
		
		case INGRESO:
		if (keypad_flag == true) {
 340:	80 91 27 01 	lds	r24, 0x0127	; 0x800127 <keypad_flag>
 344:	90 91 28 01 	lds	r25, 0x0128	; 0x800128 <keypad_flag+0x1>
 348:	01 97       	sbiw	r24, 0x01	; 1
 34a:	09 f0       	breq	.+2      	; 0x34e <actualizarMEF+0x218>
 34c:	52 c1       	rjmp	.+676    	; 0x5f2 <__EEPROM_REGION_LENGTH__+0x1f2>
			if (start == true) {
 34e:	80 91 25 01 	lds	r24, 0x0125	; 0x800125 <start>
 352:	90 91 26 01 	lds	r25, 0x0126	; 0x800126 <start+0x1>
 356:	01 97       	sbiw	r24, 0x01	; 1
 358:	21 f4       	brne	.+8      	; 0x362 <actualizarMEF+0x22c>
				est_actual = COCINANDO;
 35a:	82 e0       	ldi	r24, 0x02	; 2
 35c:	80 93 00 01 	sts	0x0100, r24	; 0x800100 <__DATA_REGION_ORIGIN__>
 360:	48 c1       	rjmp	.+656    	; 0x5f2 <__EEPROM_REGION_LENGTH__+0x1f2>
				} else if (clear == true) {
 362:	80 91 29 01 	lds	r24, 0x0129	; 0x800129 <clear>
 366:	90 91 2a 01 	lds	r25, 0x012A	; 0x80012a <clear+0x1>
 36a:	01 97       	sbiw	r24, 0x01	; 1
 36c:	59 f4       	brne	.+22     	; 0x384 <actualizarMEF+0x24e>
				number = 0;
 36e:	10 92 1e 01 	sts	0x011E, r1	; 0x80011e <number+0x1>
 372:	10 92 1d 01 	sts	0x011D, r1	; 0x80011d <number>
				contador = 0;
 376:	10 92 1c 01 	sts	0x011C, r1	; 0x80011c <contador+0x1>
 37a:	10 92 1b 01 	sts	0x011B, r1	; 0x80011b <contador>
				est_actual = INICIAL;
 37e:	10 92 00 01 	sts	0x0100, r1	; 0x800100 <__DATA_REGION_ORIGIN__>
 382:	37 c1       	rjmp	.+622    	; 0x5f2 <__EEPROM_REGION_LENGTH__+0x1f2>
				} else if (isNumber == true) {
 384:	80 91 17 01 	lds	r24, 0x0117	; 0x800117 <isNumber>
 388:	90 91 18 01 	lds	r25, 0x0118	; 0x800118 <isNumber+0x1>
 38c:	01 97       	sbiw	r24, 0x01	; 1
 38e:	29 f5       	brne	.+74     	; 0x3da <actualizarMEF+0x2a4>
				if (!((number == 0) && (contador == 0))) contador++;
 390:	80 91 1d 01 	lds	r24, 0x011D	; 0x80011d <number>
 394:	90 91 1e 01 	lds	r25, 0x011E	; 0x80011e <number+0x1>
 398:	89 2b       	or	r24, r25
 39a:	31 f4       	brne	.+12     	; 0x3a8 <actualizarMEF+0x272>
 39c:	80 91 1b 01 	lds	r24, 0x011B	; 0x80011b <contador>
 3a0:	90 91 1c 01 	lds	r25, 0x011C	; 0x80011c <contador+0x1>
 3a4:	89 2b       	or	r24, r25
 3a6:	49 f0       	breq	.+18     	; 0x3ba <actualizarMEF+0x284>
 3a8:	80 91 1b 01 	lds	r24, 0x011B	; 0x80011b <contador>
 3ac:	90 91 1c 01 	lds	r25, 0x011C	; 0x80011c <contador+0x1>
 3b0:	01 96       	adiw	r24, 0x01	; 1
 3b2:	90 93 1c 01 	sts	0x011C, r25	; 0x80011c <contador+0x1>
 3b6:	80 93 1b 01 	sts	0x011B, r24	; 0x80011b <contador>
				if (contador >= 5) { // tiene que estar en 5
 3ba:	80 91 1b 01 	lds	r24, 0x011B	; 0x80011b <contador>
 3be:	90 91 1c 01 	lds	r25, 0x011C	; 0x80011c <contador+0x1>
 3c2:	05 97       	sbiw	r24, 0x05	; 5
 3c4:	0c f4       	brge	.+2      	; 0x3c8 <actualizarMEF+0x292>
 3c6:	15 c1       	rjmp	.+554    	; 0x5f2 <__EEPROM_REGION_LENGTH__+0x1f2>
					contador = 0;
 3c8:	10 92 1c 01 	sts	0x011C, r1	; 0x80011c <contador+0x1>
 3cc:	10 92 1b 01 	sts	0x011B, r1	; 0x80011b <contador>
					number = 0;
 3d0:	10 92 1e 01 	sts	0x011E, r1	; 0x80011e <number+0x1>
 3d4:	10 92 1d 01 	sts	0x011D, r1	; 0x80011d <number>
 3d8:	0c c1       	rjmp	.+536    	; 0x5f2 <__EEPROM_REGION_LENGTH__+0x1f2>
				}
				
				}
				else if(inicioRapido == true) {
 3da:	80 91 1f 01 	lds	r24, 0x011F	; 0x80011f <inicioRapido>
 3de:	90 91 20 01 	lds	r25, 0x0120	; 0x800120 <inicioRapido+0x1>
 3e2:	01 97       	sbiw	r24, 0x01	; 1
 3e4:	09 f0       	breq	.+2      	; 0x3e8 <actualizarMEF+0x2b2>
 3e6:	05 c1       	rjmp	.+522    	; 0x5f2 <__EEPROM_REGION_LENGTH__+0x1f2>
				int min = number / 100;
 3e8:	80 91 1d 01 	lds	r24, 0x011D	; 0x80011d <number>
 3ec:	90 91 1e 01 	lds	r25, 0x011E	; 0x80011e <number+0x1>
 3f0:	64 e6       	ldi	r22, 0x64	; 100
 3f2:	70 e0       	ldi	r23, 0x00	; 0
 3f4:	0e 94 2d 0a 	call	0x145a	; 0x145a <__divmodhi4>
 3f8:	ab 01       	movw	r20, r22
				int seg = number % 100;
				seg += 30;
 3fa:	9c 01       	movw	r18, r24
 3fc:	22 5e       	subi	r18, 0xE2	; 226
 3fe:	3f 4f       	sbci	r19, 0xFF	; 255
				if(seg > 59)
 400:	2c 33       	cpi	r18, 0x3C	; 60
 402:	31 05       	cpc	r19, r1
 404:	24 f0       	brlt	.+8      	; 0x40e <__EEPROM_REGION_LENGTH__+0xe>
				{
					min++;
 406:	4f 5f       	subi	r20, 0xFF	; 255
 408:	5f 4f       	sbci	r21, 0xFF	; 255
					seg = seg - 60;
 40a:	2c 53       	subi	r18, 0x3C	; 60
 40c:	31 09       	sbc	r19, r1
				}
				number = (min * 100) + seg;
 40e:	64 e6       	ldi	r22, 0x64	; 100
 410:	64 9f       	mul	r22, r20
 412:	c0 01       	movw	r24, r0
 414:	65 9f       	mul	r22, r21
 416:	90 0d       	add	r25, r0
 418:	11 24       	eor	r1, r1
 41a:	82 0f       	add	r24, r18
 41c:	93 1f       	adc	r25, r19
 41e:	90 93 1e 01 	sts	0x011E, r25	; 0x80011e <number+0x1>
 422:	80 93 1d 01 	sts	0x011D, r24	; 0x80011d <number>
				est_actual = COCINANDO;
 426:	82 e0       	ldi	r24, 0x02	; 2
 428:	80 93 00 01 	sts	0x0100, r24	; 0x800100 <__DATA_REGION_ORIGIN__>
 42c:	e2 c0       	rjmp	.+452    	; 0x5f2 <__EEPROM_REGION_LENGTH__+0x1f2>
			}
		}
		break;
		
		case COCINANDO:
			if (stop) {est_actual = PARADO; break;}
 42e:	80 91 23 01 	lds	r24, 0x0123	; 0x800123 <stop>
 432:	90 91 24 01 	lds	r25, 0x0124	; 0x800124 <stop+0x1>
 436:	89 2b       	or	r24, r25
 438:	21 f0       	breq	.+8      	; 0x442 <__EEPROM_REGION_LENGTH__+0x42>
 43a:	83 e0       	ldi	r24, 0x03	; 3
 43c:	80 93 00 01 	sts	0x0100, r24	; 0x800100 <__DATA_REGION_ORIGIN__>
 440:	d8 c0       	rjmp	.+432    	; 0x5f2 <__EEPROM_REGION_LENGTH__+0x1f2>
			if (fin) {est_actual = FIN; break;}
 442:	80 91 21 01 	lds	r24, 0x0121	; 0x800121 <fin>
 446:	90 91 22 01 	lds	r25, 0x0122	; 0x800122 <fin+0x1>
 44a:	89 2b       	or	r24, r25
 44c:	21 f0       	breq	.+8      	; 0x456 <__EEPROM_REGION_LENGTH__+0x56>
 44e:	84 e0       	ldi	r24, 0x04	; 4
 450:	80 93 00 01 	sts	0x0100, r24	; 0x800100 <__DATA_REGION_ORIGIN__>
 454:	ce c0       	rjmp	.+412    	; 0x5f2 <__EEPROM_REGION_LENGTH__+0x1f2>
			//aca actualiza por si el numero es invalido. Preferiria que se hiciera en el estado INGRESO, pero no me salio	
			int min = number / 100;
 456:	80 91 1d 01 	lds	r24, 0x011D	; 0x80011d <number>
 45a:	90 91 1e 01 	lds	r25, 0x011E	; 0x80011e <number+0x1>
			int seg = number % 100;
 45e:	64 e6       	ldi	r22, 0x64	; 100
 460:	70 e0       	ldi	r23, 0x00	; 0
 462:	0e 94 2d 0a 	call	0x145a	; 0x145a <__divmodhi4>
		
		
			if(min > 59) min = 59;
 466:	6c 33       	cpi	r22, 0x3C	; 60
 468:	71 05       	cpc	r23, r1
 46a:	14 f0       	brlt	.+4      	; 0x470 <__EEPROM_REGION_LENGTH__+0x70>
 46c:	6b e3       	ldi	r22, 0x3B	; 59
 46e:	70 e0       	ldi	r23, 0x00	; 0
			if(seg > 59) seg = 59;
 470:	8c 33       	cpi	r24, 0x3C	; 60
 472:	91 05       	cpc	r25, r1
 474:	14 f0       	brlt	.+4      	; 0x47a <__EEPROM_REGION_LENGTH__+0x7a>
 476:	8b e3       	ldi	r24, 0x3B	; 59
 478:	90 e0       	ldi	r25, 0x00	; 0
			if(inicioRapido)
 47a:	20 91 1f 01 	lds	r18, 0x011F	; 0x80011f <inicioRapido>
 47e:	30 91 20 01 	lds	r19, 0x0120	; 0x800120 <inicioRapido+0x1>
 482:	23 2b       	or	r18, r19
 484:	89 f0       	breq	.+34     	; 0x4a8 <__EEPROM_REGION_LENGTH__+0xa8>
			{
				seg += 30;
 486:	9c 01       	movw	r18, r24
 488:	22 5e       	subi	r18, 0xE2	; 226
 48a:	3f 4f       	sbci	r19, 0xFF	; 255
				if(seg > 59)
 48c:	2c 33       	cpi	r18, 0x3C	; 60
 48e:	31 05       	cpc	r19, r1
 490:	3c f0       	brlt	.+14     	; 0x4a0 <__EEPROM_REGION_LENGTH__+0xa0>
				{
					if(!(min == 59))
 492:	6b 33       	cpi	r22, 0x3B	; 59
 494:	71 05       	cpc	r23, r1
 496:	31 f0       	breq	.+12     	; 0x4a4 <__EEPROM_REGION_LENGTH__+0xa4>
					{
						min++;
 498:	6f 5f       	subi	r22, 0xFF	; 255
 49a:	7f 4f       	sbci	r23, 0xFF	; 255
						seg = seg - 60;
 49c:	4e 97       	sbiw	r24, 0x1e	; 30
 49e:	04 c0       	rjmp	.+8      	; 0x4a8 <__EEPROM_REGION_LENGTH__+0xa8>
		
			if(min > 59) min = 59;
			if(seg > 59) seg = 59;
			if(inicioRapido)
			{
				seg += 30;
 4a0:	c9 01       	movw	r24, r18
 4a2:	02 c0       	rjmp	.+4      	; 0x4a8 <__EEPROM_REGION_LENGTH__+0xa8>
					{
						min++;
						seg = seg - 60;
					}
					else
						seg = 59;
 4a4:	8b e3       	ldi	r24, 0x3B	; 59
 4a6:	90 e0       	ldi	r25, 0x00	; 0
				}
			}
			number = (min * 100) + seg;
 4a8:	44 e6       	ldi	r20, 0x64	; 100
 4aa:	46 9f       	mul	r20, r22
 4ac:	90 01       	movw	r18, r0
 4ae:	47 9f       	mul	r20, r23
 4b0:	30 0d       	add	r19, r0
 4b2:	11 24       	eor	r1, r1
 4b4:	28 0f       	add	r18, r24
 4b6:	39 1f       	adc	r19, r25
 4b8:	30 93 1e 01 	sts	0x011E, r19	; 0x80011e <number+0x1>
 4bc:	20 93 1d 01 	sts	0x011D, r18	; 0x80011d <number>
			
			ticks++;
 4c0:	90 91 2b 01 	lds	r25, 0x012B	; 0x80012b <ticks>
 4c4:	9f 5f       	subi	r25, 0xFF	; 255
 4c6:	90 93 2b 01 	sts	0x012B, r25	; 0x80012b <ticks>
			if(ticks >= 100) //Como se ingresa a esta parte del codigo cada 10ms, puedo multiplicar eso por 100 y aproximar 1s
 4ca:	94 36       	cpi	r25, 0x64	; 100
 4cc:	08 f4       	brcc	.+2      	; 0x4d0 <__EEPROM_REGION_LENGTH__+0xd0>
 4ce:	91 c0       	rjmp	.+290    	; 0x5f2 <__EEPROM_REGION_LENGTH__+0x1f2>
			{
				ticks = 0; 
 4d0:	10 92 2b 01 	sts	0x012B, r1	; 0x80012b <ticks>
			
				min = number / 100;
 4d4:	c9 01       	movw	r24, r18
 4d6:	64 e6       	ldi	r22, 0x64	; 100
 4d8:	70 e0       	ldi	r23, 0x00	; 0
 4da:	0e 94 2d 0a 	call	0x145a	; 0x145a <__divmodhi4>
 4de:	ab 01       	movw	r20, r22
				seg = number % 100;
 4e0:	9c 01       	movw	r18, r24
			
				if (seg > 0) {
 4e2:	18 16       	cp	r1, r24
 4e4:	19 06       	cpc	r1, r25
 4e6:	1c f4       	brge	.+6      	; 0x4ee <__EEPROM_REGION_LENGTH__+0xee>
					seg--; 
 4e8:	21 50       	subi	r18, 0x01	; 1
 4ea:	31 09       	sbc	r19, r1
 4ec:	08 c0       	rjmp	.+16     	; 0x4fe <__EEPROM_REGION_LENGTH__+0xfe>
					} else { 
					if (min > 0) {
 4ee:	16 16       	cp	r1, r22
 4f0:	17 06       	cpc	r1, r23
 4f2:	2c f4       	brge	.+10     	; 0x4fe <__EEPROM_REGION_LENGTH__+0xfe>
						min--;   
 4f4:	ab 01       	movw	r20, r22
 4f6:	41 50       	subi	r20, 0x01	; 1
 4f8:	51 09       	sbc	r21, r1
						seg = 59; 
 4fa:	2b e3       	ldi	r18, 0x3B	; 59
 4fc:	30 e0       	ldi	r19, 0x00	; 0
					}
				}
				number = (min * 100) + seg;
 4fe:	64 e6       	ldi	r22, 0x64	; 100
 500:	64 9f       	mul	r22, r20
 502:	c0 01       	movw	r24, r0
 504:	65 9f       	mul	r22, r21
 506:	90 0d       	add	r25, r0
 508:	11 24       	eor	r1, r1
 50a:	82 0f       	add	r24, r18
 50c:	93 1f       	adc	r25, r19
 50e:	90 93 1e 01 	sts	0x011E, r25	; 0x80011e <number+0x1>
 512:	80 93 1d 01 	sts	0x011D, r24	; 0x80011d <number>
			
				if (number == 0) {
 516:	89 2b       	or	r24, r25
 518:	09 f0       	breq	.+2      	; 0x51c <__EEPROM_REGION_LENGTH__+0x11c>
 51a:	6b c0       	rjmp	.+214    	; 0x5f2 <__EEPROM_REGION_LENGTH__+0x1f2>
					est_actual = FIN;
 51c:	84 e0       	ldi	r24, 0x04	; 4
 51e:	80 93 00 01 	sts	0x0100, r24	; 0x800100 <__DATA_REGION_ORIGIN__>
 522:	67 c0       	rjmp	.+206    	; 0x5f2 <__EEPROM_REGION_LENGTH__+0x1f2>
				}
			}
			break;
		
		case PARADO:
		if (start) est_actual = COCINANDO;
 524:	80 91 25 01 	lds	r24, 0x0125	; 0x800125 <start>
 528:	90 91 26 01 	lds	r25, 0x0126	; 0x800126 <start+0x1>
 52c:	89 2b       	or	r24, r25
 52e:	19 f0       	breq	.+6      	; 0x536 <__EEPROM_REGION_LENGTH__+0x136>
 530:	82 e0       	ldi	r24, 0x02	; 2
 532:	80 93 00 01 	sts	0x0100, r24	; 0x800100 <__DATA_REGION_ORIGIN__>
		if (isNumber) est_actual = INGRESO;
 536:	80 91 17 01 	lds	r24, 0x0117	; 0x800117 <isNumber>
 53a:	90 91 18 01 	lds	r25, 0x0118	; 0x800118 <isNumber+0x1>
 53e:	89 2b       	or	r24, r25
 540:	19 f0       	breq	.+6      	; 0x548 <__EEPROM_REGION_LENGTH__+0x148>
 542:	81 e0       	ldi	r24, 0x01	; 1
 544:	80 93 00 01 	sts	0x0100, r24	; 0x800100 <__DATA_REGION_ORIGIN__>
		if (clear) {
 548:	80 91 29 01 	lds	r24, 0x0129	; 0x800129 <clear>
 54c:	90 91 2a 01 	lds	r25, 0x012A	; 0x80012a <clear+0x1>
 550:	89 2b       	or	r24, r25
 552:	31 f0       	breq	.+12     	; 0x560 <__EEPROM_REGION_LENGTH__+0x160>
			number = 0; // Agrego esto por seguridad al limpiar
 554:	10 92 1e 01 	sts	0x011E, r1	; 0x80011e <number+0x1>
 558:	10 92 1d 01 	sts	0x011D, r1	; 0x80011d <number>
			est_actual = INICIAL;
 55c:	10 92 00 01 	sts	0x0100, r1	; 0x800100 <__DATA_REGION_ORIGIN__>
		}
		if(inicioRapido)
 560:	80 91 1f 01 	lds	r24, 0x011F	; 0x80011f <inicioRapido>
 564:	90 91 20 01 	lds	r25, 0x0120	; 0x800120 <inicioRapido+0x1>
 568:	89 2b       	or	r24, r25
 56a:	09 f4       	brne	.+2      	; 0x56e <__EEPROM_REGION_LENGTH__+0x16e>
 56c:	42 c0       	rjmp	.+132    	; 0x5f2 <__EEPROM_REGION_LENGTH__+0x1f2>
		{
			min = number / 100;
 56e:	80 91 1d 01 	lds	r24, 0x011D	; 0x80011d <number>
 572:	90 91 1e 01 	lds	r25, 0x011E	; 0x80011e <number+0x1>
 576:	64 e6       	ldi	r22, 0x64	; 100
 578:	70 e0       	ldi	r23, 0x00	; 0
 57a:	0e 94 2d 0a 	call	0x145a	; 0x145a <__divmodhi4>
 57e:	ab 01       	movw	r20, r22
			seg = number % 100;
			seg += 30;
 580:	9c 01       	movw	r18, r24
 582:	22 5e       	subi	r18, 0xE2	; 226
 584:	3f 4f       	sbci	r19, 0xFF	; 255
			if(seg > 59)
 586:	2c 33       	cpi	r18, 0x3C	; 60
 588:	31 05       	cpc	r19, r1
 58a:	24 f0       	brlt	.+8      	; 0x594 <__EEPROM_REGION_LENGTH__+0x194>
			{
				min++;
 58c:	4f 5f       	subi	r20, 0xFF	; 255
 58e:	5f 4f       	sbci	r21, 0xFF	; 255
				seg = seg - 60;
 590:	2c 53       	subi	r18, 0x3C	; 60
 592:	31 09       	sbc	r19, r1
			}
			number = (min * 100) + seg;
 594:	64 e6       	ldi	r22, 0x64	; 100
 596:	64 9f       	mul	r22, r20
 598:	c0 01       	movw	r24, r0
 59a:	65 9f       	mul	r22, r21
 59c:	90 0d       	add	r25, r0
 59e:	11 24       	eor	r1, r1
 5a0:	82 0f       	add	r24, r18
 5a2:	93 1f       	adc	r25, r19
 5a4:	90 93 1e 01 	sts	0x011E, r25	; 0x80011e <number+0x1>
 5a8:	80 93 1d 01 	sts	0x011D, r24	; 0x80011d <number>
 5ac:	22 c0       	rjmp	.+68     	; 0x5f2 <__EEPROM_REGION_LENGTH__+0x1f2>
		
		
		break;
		
		case FIN:
			if (keypad_flag || ciclo_fin == 5) {est_actual = INICIAL;}
 5ae:	80 91 27 01 	lds	r24, 0x0127	; 0x800127 <keypad_flag>
 5b2:	90 91 28 01 	lds	r25, 0x0128	; 0x800128 <keypad_flag+0x1>
 5b6:	89 2b       	or	r24, r25
 5b8:	31 f4       	brne	.+12     	; 0x5c6 <__EEPROM_REGION_LENGTH__+0x1c6>
 5ba:	80 91 19 01 	lds	r24, 0x0119	; 0x800119 <ciclo_fin>
 5be:	90 91 1a 01 	lds	r25, 0x011A	; 0x80011a <ciclo_fin+0x1>
 5c2:	05 97       	sbiw	r24, 0x05	; 5
 5c4:	11 f4       	brne	.+4      	; 0x5ca <__EEPROM_REGION_LENGTH__+0x1ca>
 5c6:	10 92 00 01 	sts	0x0100, r1	; 0x800100 <__DATA_REGION_ORIGIN__>
			if (ticks == 100){
 5ca:	80 91 2b 01 	lds	r24, 0x012B	; 0x80012b <ticks>
 5ce:	84 36       	cpi	r24, 0x64	; 100
 5d0:	59 f4       	brne	.+22     	; 0x5e8 <__EEPROM_REGION_LENGTH__+0x1e8>
				ciclo_fin++;
 5d2:	80 91 19 01 	lds	r24, 0x0119	; 0x800119 <ciclo_fin>
 5d6:	90 91 1a 01 	lds	r25, 0x011A	; 0x80011a <ciclo_fin+0x1>
 5da:	01 96       	adiw	r24, 0x01	; 1
 5dc:	90 93 1a 01 	sts	0x011A, r25	; 0x80011a <ciclo_fin+0x1>
 5e0:	80 93 19 01 	sts	0x0119, r24	; 0x800119 <ciclo_fin>
				ticks = 0;
 5e4:	10 92 2b 01 	sts	0x012B, r1	; 0x80012b <ticks>
			}
			
			ticks++;
 5e8:	80 91 2b 01 	lds	r24, 0x012B	; 0x80012b <ticks>
 5ec:	8f 5f       	subi	r24, 0xFF	; 255
 5ee:	80 93 2b 01 	sts	0x012B, r24	; 0x80012b <ticks>
		break;
	}

	// bajo flags para que no se crea que el boton es eterno
	keypad_flag = false;
 5f2:	10 92 28 01 	sts	0x0128, r1	; 0x800128 <keypad_flag+0x1>
 5f6:	10 92 27 01 	sts	0x0127, r1	; 0x800127 <keypad_flag>
	inicioRapido = false;
 5fa:	10 92 20 01 	sts	0x0120, r1	; 0x800120 <inicioRapido+0x1>
 5fe:	10 92 1f 01 	sts	0x011F, r1	; 0x80011f <inicioRapido>
	isNumber = false;
 602:	10 92 18 01 	sts	0x0118, r1	; 0x800118 <isNumber+0x1>
 606:	10 92 17 01 	sts	0x0117, r1	; 0x800117 <isNumber>
	start = false;
 60a:	10 92 26 01 	sts	0x0126, r1	; 0x800126 <start+0x1>
 60e:	10 92 25 01 	sts	0x0125, r1	; 0x800125 <start>
	stop = false;
 612:	10 92 24 01 	sts	0x0124, r1	; 0x800124 <stop+0x1>
 616:	10 92 23 01 	sts	0x0123, r1	; 0x800123 <stop>
	clear = false;
 61a:	10 92 2a 01 	sts	0x012A, r1	; 0x80012a <clear+0x1>
 61e:	10 92 29 01 	sts	0x0129, r1	; 0x800129 <clear>
 622:	08 95       	ret

Disassembly of section .text.actualizarSalida:

00000bd6 <actualizarSalida>:
}

char* actualizarSalida()
{
	switch (est_actual) {
 bd6:	80 91 00 01 	lds	r24, 0x0100	; 0x800100 <__DATA_REGION_ORIGIN__>
 bda:	82 30       	cpi	r24, 0x02	; 2
 bdc:	d9 f1       	breq	.+118    	; 0xc54 <actualizarSalida+0x7e>
 bde:	28 f4       	brcc	.+10     	; 0xbea <actualizarSalida+0x14>
 be0:	88 23       	and	r24, r24
 be2:	51 f0       	breq	.+20     	; 0xbf8 <actualizarSalida+0x22>
 be4:	81 30       	cpi	r24, 0x01	; 1
 be6:	91 f0       	breq	.+36     	; 0xc0c <actualizarSalida+0x36>
 be8:	93 c0       	rjmp	.+294    	; 0xd10 <actualizarSalida+0x13a>
 bea:	83 30       	cpi	r24, 0x03	; 3
 bec:	09 f4       	brne	.+2      	; 0xbf0 <actualizarSalida+0x1a>
 bee:	55 c0       	rjmp	.+170    	; 0xc9a <actualizarSalida+0xc4>
 bf0:	84 30       	cpi	r24, 0x04	; 4
 bf2:	09 f4       	brne	.+2      	; 0xbf6 <actualizarSalida+0x20>
 bf4:	76 c0       	rjmp	.+236    	; 0xce2 <actualizarSalida+0x10c>
 bf6:	8c c0       	rjmp	.+280    	; 0xd10 <actualizarSalida+0x13a>
		case INICIAL:
		snprintf(keypad_out, sizeof(keypad_out), "00:00");
 bf8:	26 e0       	ldi	r18, 0x06	; 6
 bfa:	30 e0       	ldi	r19, 0x00	; 0
 bfc:	4a e1       	ldi	r20, 0x1A	; 26
 bfe:	51 e0       	ldi	r21, 0x01	; 1
 c00:	60 e0       	ldi	r22, 0x00	; 0
 c02:	81 e1       	ldi	r24, 0x11	; 17
 c04:	91 e0       	ldi	r25, 0x01	; 1
 c06:	0e 94 fc 09 	call	0x13f8	; 0x13f8 <memcpy>
		break;
 c0a:	82 c0       	rjmp	.+260    	; 0xd10 <actualizarSalida+0x13a>
		
		case INGRESO:
		snprintf(keypad_out, sizeof(keypad_out), "%02d:%02d", number / 100, number % 100);
 c0c:	80 91 1d 01 	lds	r24, 0x011D	; 0x80011d <number>
 c10:	90 91 1e 01 	lds	r25, 0x011E	; 0x80011e <number+0x1>
 c14:	64 e6       	ldi	r22, 0x64	; 100
 c16:	70 e0       	ldi	r23, 0x00	; 0
 c18:	0e 94 2d 0a 	call	0x145a	; 0x145a <__divmodhi4>
 c1c:	9f 93       	push	r25
 c1e:	8f 93       	push	r24
 c20:	7f 93       	push	r23
 c22:	6f 93       	push	r22
 c24:	80 e2       	ldi	r24, 0x20	; 32
 c26:	91 e0       	ldi	r25, 0x01	; 1
 c28:	a0 e0       	ldi	r26, 0x00	; 0
 c2a:	af 93       	push	r26
 c2c:	9f 93       	push	r25
 c2e:	8f 93       	push	r24
 c30:	1f 92       	push	r1
 c32:	86 e0       	ldi	r24, 0x06	; 6
 c34:	8f 93       	push	r24
 c36:	81 e1       	ldi	r24, 0x11	; 17
 c38:	91 e0       	ldi	r25, 0x01	; 1
 c3a:	9f 93       	push	r25
 c3c:	8f 93       	push	r24
 c3e:	0e 94 06 09 	call	0x120c	; 0x120c <snprintf>

		break;
 c42:	8d b7       	in	r24, 0x3d	; 61
 c44:	9e b7       	in	r25, 0x3e	; 62
 c46:	0b 96       	adiw	r24, 0x0b	; 11
 c48:	0f b6       	in	r0, 0x3f	; 63
 c4a:	f8 94       	cli
 c4c:	9e bf       	out	0x3e, r25	; 62
 c4e:	0f be       	out	0x3f, r0	; 63
 c50:	8d bf       	out	0x3d, r24	; 61
 c52:	5e c0       	rjmp	.+188    	; 0xd10 <actualizarSalida+0x13a>
		
		case COCINANDO:
		snprintf(keypad_out, sizeof(keypad_out), "%02d:%02d", number / 100, number % 100);
 c54:	80 91 1d 01 	lds	r24, 0x011D	; 0x80011d <number>
 c58:	90 91 1e 01 	lds	r25, 0x011E	; 0x80011e <number+0x1>
 c5c:	64 e6       	ldi	r22, 0x64	; 100
 c5e:	70 e0       	ldi	r23, 0x00	; 0
 c60:	0e 94 2d 0a 	call	0x145a	; 0x145a <__divmodhi4>
 c64:	9f 93       	push	r25
 c66:	8f 93       	push	r24
 c68:	7f 93       	push	r23
 c6a:	6f 93       	push	r22
 c6c:	80 e2       	ldi	r24, 0x20	; 32
 c6e:	91 e0       	ldi	r25, 0x01	; 1
 c70:	a0 e0       	ldi	r26, 0x00	; 0
 c72:	af 93       	push	r26
 c74:	9f 93       	push	r25
 c76:	8f 93       	push	r24
 c78:	1f 92       	push	r1
 c7a:	86 e0       	ldi	r24, 0x06	; 6
 c7c:	8f 93       	push	r24
 c7e:	81 e1       	ldi	r24, 0x11	; 17
 c80:	91 e0       	ldi	r25, 0x01	; 1
 c82:	9f 93       	push	r25
 c84:	8f 93       	push	r24
 c86:	0e 94 06 09 	call	0x120c	; 0x120c <snprintf>
 c8a:	8d b7       	in	r24, 0x3d	; 61
 c8c:	9e b7       	in	r25, 0x3e	; 62
 c8e:	0b 96       	adiw	r24, 0x0b	; 11
 c90:	0f b6       	in	r0, 0x3f	; 63
 c92:	f8 94       	cli
 c94:	9e bf       	out	0x3e, r25	; 62
 c96:	0f be       	out	0x3f, r0	; 63
 c98:	8d bf       	out	0x3d, r24	; 61
		
		case PARADO:
		snprintf(keypad_out, sizeof(keypad_out), "%02d:%02d", number / 100, number % 100);
 c9a:	80 91 1d 01 	lds	r24, 0x011D	; 0x80011d <number>
 c9e:	90 91 1e 01 	lds	r25, 0x011E	; 0x80011e <number+0x1>
 ca2:	64 e6       	ldi	r22, 0x64	; 100
 ca4:	70 e0       	ldi	r23, 0x00	; 0
 ca6:	0e 94 2d 0a 	call	0x145a	; 0x145a <__divmodhi4>
 caa:	9f 93       	push	r25
 cac:	8f 93       	push	r24
 cae:	7f 93       	push	r23
 cb0:	6f 93       	push	r22
 cb2:	80 e2       	ldi	r24, 0x20	; 32
 cb4:	91 e0       	ldi	r25, 0x01	; 1
 cb6:	a0 e0       	ldi	r26, 0x00	; 0
 cb8:	af 93       	push	r26
 cba:	9f 93       	push	r25
 cbc:	8f 93       	push	r24
 cbe:	1f 92       	push	r1
 cc0:	86 e0       	ldi	r24, 0x06	; 6
 cc2:	8f 93       	push	r24
 cc4:	81 e1       	ldi	r24, 0x11	; 17
 cc6:	91 e0       	ldi	r25, 0x01	; 1
 cc8:	9f 93       	push	r25
 cca:	8f 93       	push	r24
 ccc:	0e 94 06 09 	call	0x120c	; 0x120c <snprintf>
		break;
 cd0:	8d b7       	in	r24, 0x3d	; 61
 cd2:	9e b7       	in	r25, 0x3e	; 62
 cd4:	0b 96       	adiw	r24, 0x0b	; 11
 cd6:	0f b6       	in	r0, 0x3f	; 63
 cd8:	f8 94       	cli
 cda:	9e bf       	out	0x3e, r25	; 62
 cdc:	0f be       	out	0x3f, r0	; 63
 cde:	8d bf       	out	0x3d, r24	; 61
 ce0:	17 c0       	rjmp	.+46     	; 0xd10 <actualizarSalida+0x13a>

		case FIN:
		if (ticks < 50)
 ce2:	80 91 2b 01 	lds	r24, 0x012B	; 0x80012b <ticks>
 ce6:	82 33       	cpi	r24, 0x32	; 50
 ce8:	50 f4       	brcc	.+20     	; 0xcfe <actualizarSalida+0x128>
			snprintf(keypad_out, sizeof(keypad_out), "FIN  ");
 cea:	26 e0       	ldi	r18, 0x06	; 6
 cec:	30 e0       	ldi	r19, 0x00	; 0
 cee:	4a e2       	ldi	r20, 0x2A	; 42
 cf0:	51 e0       	ldi	r21, 0x01	; 1
 cf2:	60 e0       	ldi	r22, 0x00	; 0
 cf4:	81 e1       	ldi	r24, 0x11	; 17
 cf6:	91 e0       	ldi	r25, 0x01	; 1
 cf8:	0e 94 fc 09 	call	0x13f8	; 0x13f8 <memcpy>
 cfc:	09 c0       	rjmp	.+18     	; 0xd10 <actualizarSalida+0x13a>
		else
			snprintf(keypad_out, sizeof(keypad_out), "     ");
 cfe:	26 e0       	ldi	r18, 0x06	; 6
 d00:	30 e0       	ldi	r19, 0x00	; 0
 d02:	40 e3       	ldi	r20, 0x30	; 48
 d04:	51 e0       	ldi	r21, 0x01	; 1
 d06:	60 e0       	ldi	r22, 0x00	; 0
 d08:	81 e1       	ldi	r24, 0x11	; 17
 d0a:	91 e0       	ldi	r25, 0x01	; 1
 d0c:	0e 94 fc 09 	call	0x13f8	; 0x13f8 <memcpy>
		break;
	}
	return keypad_out;
}
 d10:	81 e1       	ldi	r24, 0x11	; 17
 d12:	91 e0       	ldi	r25, 0x01	; 1
 d14:	08 95       	ret

Disassembly of section .text.leerTeclado:

00000a6c <leerTeclado>:
 * Created: 12/5/2026 13:34:48
 */
#include "keypad.h"

char leerTeclado()
{
 a6c:	cf 93       	push	r28
 a6e:	df 93       	push	r29
 a70:	cd b7       	in	r28, 0x3d	; 61
 a72:	de b7       	in	r29, 0x3e	; 62
 a74:	60 97       	sbiw	r28, 0x10	; 16
 a76:	0f b6       	in	r0, 0x3f	; 63
 a78:	f8 94       	cli
 a7a:	de bf       	out	0x3e, r29	; 62
 a7c:	0f be       	out	0x3f, r0	; 63
 a7e:	cd bf       	out	0x3d, r28	; 61
	//Una matriz simple para devolver el char apropiado
	char mapa_teclas[4][4] = {
 a80:	80 e1       	ldi	r24, 0x10	; 16
 a82:	e1 e0       	ldi	r30, 0x01	; 1
 a84:	f1 e0       	ldi	r31, 0x01	; 1
 a86:	de 01       	movw	r26, r28
 a88:	11 96       	adiw	r26, 0x01	; 1
 a8a:	01 90       	ld	r0, Z+
 a8c:	0d 92       	st	X+, r0
 a8e:	8a 95       	dec	r24
 a90:	e1 f7       	brne	.-8      	; 0xa8a <leerTeclado+0x1e>
	//Las filas estan en el Puerto B, asi que cada repeticion pone una en low haciendole un AND con PORTBX, siendo X el puerto que conecta esa fila
	//Luego de un delay para estabilizar la seńal, se hace lo siguiente:
	//Siendo el puerto D la posicion de las columnas, si (!(PIND & (1 << PINDX))) es true, quiere decir que la posicion X esta en low, porque la tecla fue presionada
	
	//fila 1
	PORTB &= ~(1 << PORTB4);
 a92:	85 b1       	in	r24, 0x05	; 5
 a94:	8f 7e       	andi	r24, 0xEF	; 239
 a96:	85 b9       	out	0x05, r24	; 5
	#else
		//round up by default
		__ticks_dc = (uint32_t)(ceil(fabs(__tmp)));
	#endif

	__builtin_avr_delay_cycles(__ticks_dc);
 a98:	83 e0       	ldi	r24, 0x03	; 3
 a9a:	8a 95       	dec	r24
 a9c:	f1 f7       	brne	.-4      	; 0xa9a <leerTeclado+0x2e>
 a9e:	00 00       	nop
	_delay_us(10);

	if (!(PIND & (1 << PIND3))) { PORTB |= (1 << PORTB4); return mapa_teclas[0][0]; }
 aa0:	4b 99       	sbic	0x09, 3	; 9
 aa2:	05 c0       	rjmp	.+10     	; 0xaae <leerTeclado+0x42>
 aa4:	85 b1       	in	r24, 0x05	; 5
 aa6:	80 61       	ori	r24, 0x10	; 16
 aa8:	85 b9       	out	0x05, r24	; 5
 aaa:	89 81       	ldd	r24, Y+1	; 0x01
 aac:	8b c0       	rjmp	.+278    	; 0xbc4 <leerTeclado+0x158>
	if (!(PIND & (1 << PIND5))) { PORTB |= (1 << PORTB4); return mapa_teclas[0][1]; }
 aae:	4d 99       	sbic	0x09, 5	; 9
 ab0:	05 c0       	rjmp	.+10     	; 0xabc <leerTeclado+0x50>
 ab2:	85 b1       	in	r24, 0x05	; 5
 ab4:	80 61       	ori	r24, 0x10	; 16
 ab6:	85 b9       	out	0x05, r24	; 5
 ab8:	8a 81       	ldd	r24, Y+2	; 0x02
 aba:	84 c0       	rjmp	.+264    	; 0xbc4 <leerTeclado+0x158>
	if (!(PIND & (1 << PIND4))) { PORTB |= (1 << PORTB4); return mapa_teclas[0][2]; }
 abc:	4c 99       	sbic	0x09, 4	; 9
 abe:	05 c0       	rjmp	.+10     	; 0xaca <leerTeclado+0x5e>
 ac0:	85 b1       	in	r24, 0x05	; 5
 ac2:	80 61       	ori	r24, 0x10	; 16
 ac4:	85 b9       	out	0x05, r24	; 5
 ac6:	8b 81       	ldd	r24, Y+3	; 0x03
 ac8:	7d c0       	rjmp	.+250    	; 0xbc4 <leerTeclado+0x158>
	if (!(PIND & (1 << PIND2))) { PORTB |= (1 << PORTB4); return mapa_teclas[0][3]; }
 aca:	4a 99       	sbic	0x09, 2	; 9
 acc:	05 c0       	rjmp	.+10     	; 0xad8 <leerTeclado+0x6c>
 ace:	85 b1       	in	r24, 0x05	; 5
 ad0:	80 61       	ori	r24, 0x10	; 16
 ad2:	85 b9       	out	0x05, r24	; 5
 ad4:	8c 81       	ldd	r24, Y+4	; 0x04
 ad6:	76 c0       	rjmp	.+236    	; 0xbc4 <leerTeclado+0x158>
	
	PORTB |= (1 << PORTB4);
 ad8:	85 b1       	in	r24, 0x05	; 5
 ada:	80 61       	ori	r24, 0x10	; 16
 adc:	85 b9       	out	0x05, r24	; 5
	//fila2
	PORTB &= ~(1 << PORTB3);
 ade:	85 b1       	in	r24, 0x05	; 5
 ae0:	87 7f       	andi	r24, 0xF7	; 247
 ae2:	85 b9       	out	0x05, r24	; 5
 ae4:	83 e0       	ldi	r24, 0x03	; 3
 ae6:	8a 95       	dec	r24
 ae8:	f1 f7       	brne	.-4      	; 0xae6 <leerTeclado+0x7a>
 aea:	00 00       	nop
	_delay_us(10);
	
	if (!(PIND & (1 << PIND3))) { PORTB |= (1 << PORTB3); return mapa_teclas[1][0]; }
 aec:	4b 99       	sbic	0x09, 3	; 9
 aee:	05 c0       	rjmp	.+10     	; 0xafa <leerTeclado+0x8e>
 af0:	85 b1       	in	r24, 0x05	; 5
 af2:	88 60       	ori	r24, 0x08	; 8
 af4:	85 b9       	out	0x05, r24	; 5
 af6:	8d 81       	ldd	r24, Y+5	; 0x05
 af8:	65 c0       	rjmp	.+202    	; 0xbc4 <leerTeclado+0x158>
	if (!(PIND & (1 << PIND5))) { PORTB |= (1 << PORTB3); return mapa_teclas[1][1]; }
 afa:	4d 99       	sbic	0x09, 5	; 9
 afc:	05 c0       	rjmp	.+10     	; 0xb08 <leerTeclado+0x9c>
 afe:	85 b1       	in	r24, 0x05	; 5
 b00:	88 60       	ori	r24, 0x08	; 8
 b02:	85 b9       	out	0x05, r24	; 5
 b04:	8e 81       	ldd	r24, Y+6	; 0x06
 b06:	5e c0       	rjmp	.+188    	; 0xbc4 <leerTeclado+0x158>
	if (!(PIND & (1 << PIND4))) { PORTB |= (1 << PORTB3); return mapa_teclas[1][2]; }
 b08:	4c 99       	sbic	0x09, 4	; 9
 b0a:	05 c0       	rjmp	.+10     	; 0xb16 <leerTeclado+0xaa>
 b0c:	85 b1       	in	r24, 0x05	; 5
 b0e:	88 60       	ori	r24, 0x08	; 8
 b10:	85 b9       	out	0x05, r24	; 5
 b12:	8f 81       	ldd	r24, Y+7	; 0x07
 b14:	57 c0       	rjmp	.+174    	; 0xbc4 <leerTeclado+0x158>
	if (!(PIND & (1 << PIND2))) { PORTB |= (1 << PORTB3); return mapa_teclas[1][3]; }
 b16:	4a 99       	sbic	0x09, 2	; 9
 b18:	05 c0       	rjmp	.+10     	; 0xb24 <leerTeclado+0xb8>
 b1a:	85 b1       	in	r24, 0x05	; 5
 b1c:	88 60       	ori	r24, 0x08	; 8
 b1e:	85 b9       	out	0x05, r24	; 5
 b20:	88 85       	ldd	r24, Y+8	; 0x08
 b22:	50 c0       	rjmp	.+160    	; 0xbc4 <leerTeclado+0x158>
	
	PORTB |= (1 << PORTB3);
 b24:	85 b1       	in	r24, 0x05	; 5
 b26:	88 60       	ori	r24, 0x08	; 8
 b28:	85 b9       	out	0x05, r24	; 5
	//fila3
	PORTB &= ~(1 << PORTB0);
 b2a:	85 b1       	in	r24, 0x05	; 5
 b2c:	8e 7f       	andi	r24, 0xFE	; 254
 b2e:	85 b9       	out	0x05, r24	; 5
 b30:	83 e0       	ldi	r24, 0x03	; 3
 b32:	8a 95       	dec	r24
 b34:	f1 f7       	brne	.-4      	; 0xb32 <leerTeclado+0xc6>
 b36:	00 00       	nop
	_delay_us(10);

	if (!(PIND & (1 << PIND3))) { PORTB |= (1 << PORTB0); return mapa_teclas[2][0]; }
 b38:	4b 99       	sbic	0x09, 3	; 9
 b3a:	05 c0       	rjmp	.+10     	; 0xb46 <leerTeclado+0xda>
 b3c:	85 b1       	in	r24, 0x05	; 5
 b3e:	81 60       	ori	r24, 0x01	; 1
 b40:	85 b9       	out	0x05, r24	; 5
 b42:	89 85       	ldd	r24, Y+9	; 0x09
 b44:	3f c0       	rjmp	.+126    	; 0xbc4 <leerTeclado+0x158>
	if (!(PIND & (1 << PIND5))) { PORTB |= (1 << PORTB0); return mapa_teclas[2][1]; }
 b46:	4d 99       	sbic	0x09, 5	; 9
 b48:	05 c0       	rjmp	.+10     	; 0xb54 <leerTeclado+0xe8>
 b4a:	85 b1       	in	r24, 0x05	; 5
 b4c:	81 60       	ori	r24, 0x01	; 1
 b4e:	85 b9       	out	0x05, r24	; 5
 b50:	8a 85       	ldd	r24, Y+10	; 0x0a
 b52:	38 c0       	rjmp	.+112    	; 0xbc4 <leerTeclado+0x158>
	if (!(PIND & (1 << PIND4))) { PORTB |= (1 << PORTB0); return mapa_teclas[2][2]; }
 b54:	4c 99       	sbic	0x09, 4	; 9
 b56:	05 c0       	rjmp	.+10     	; 0xb62 <leerTeclado+0xf6>
 b58:	85 b1       	in	r24, 0x05	; 5
 b5a:	81 60       	ori	r24, 0x01	; 1
 b5c:	85 b9       	out	0x05, r24	; 5
 b5e:	8b 85       	ldd	r24, Y+11	; 0x0b
 b60:	31 c0       	rjmp	.+98     	; 0xbc4 <leerTeclado+0x158>
	if (!(PIND & (1 << PIND2))) { PORTB |= (1 << PORTB0); return mapa_teclas[2][3]; }
 b62:	4a 99       	sbic	0x09, 2	; 9
 b64:	05 c0       	rjmp	.+10     	; 0xb70 <leerTeclado+0x104>
 b66:	85 b1       	in	r24, 0x05	; 5
 b68:	81 60       	ori	r24, 0x01	; 1
 b6a:	85 b9       	out	0x05, r24	; 5
 b6c:	8c 85       	ldd	r24, Y+12	; 0x0c
 b6e:	2a c0       	rjmp	.+84     	; 0xbc4 <leerTeclado+0x158>
	
	PORTB |= (1 << PORTB0);
 b70:	85 b1       	in	r24, 0x05	; 5
 b72:	81 60       	ori	r24, 0x01	; 1
 b74:	85 b9       	out	0x05, r24	; 5
	//fila 4
	PORTD &= ~(1 << PORTD7);
 b76:	8b b1       	in	r24, 0x0b	; 11
 b78:	8f 77       	andi	r24, 0x7F	; 127
 b7a:	8b b9       	out	0x0b, r24	; 11
 b7c:	83 e0       	ldi	r24, 0x03	; 3
 b7e:	8a 95       	dec	r24
 b80:	f1 f7       	brne	.-4      	; 0xb7e <leerTeclado+0x112>
 b82:	00 00       	nop
	_delay_us(10);

	if (!(PIND & (1 << PIND3))) { PORTD |= (1 << PORTD7); return mapa_teclas[3][0]; }
 b84:	4b 99       	sbic	0x09, 3	; 9
 b86:	05 c0       	rjmp	.+10     	; 0xb92 <leerTeclado+0x126>
 b88:	8b b1       	in	r24, 0x0b	; 11
 b8a:	80 68       	ori	r24, 0x80	; 128
 b8c:	8b b9       	out	0x0b, r24	; 11
 b8e:	8d 85       	ldd	r24, Y+13	; 0x0d
 b90:	19 c0       	rjmp	.+50     	; 0xbc4 <leerTeclado+0x158>
	if (!(PIND & (1 << PIND5))) { PORTD |= (1 << PORTD7); return mapa_teclas[3][1]; }
 b92:	4d 99       	sbic	0x09, 5	; 9
 b94:	05 c0       	rjmp	.+10     	; 0xba0 <leerTeclado+0x134>
 b96:	8b b1       	in	r24, 0x0b	; 11
 b98:	80 68       	ori	r24, 0x80	; 128
 b9a:	8b b9       	out	0x0b, r24	; 11
 b9c:	8e 85       	ldd	r24, Y+14	; 0x0e
 b9e:	12 c0       	rjmp	.+36     	; 0xbc4 <leerTeclado+0x158>
	if (!(PIND & (1 << PIND4))) { PORTD |= (1 << PORTD7); return mapa_teclas[3][2]; }
 ba0:	4c 99       	sbic	0x09, 4	; 9
 ba2:	05 c0       	rjmp	.+10     	; 0xbae <leerTeclado+0x142>
 ba4:	8b b1       	in	r24, 0x0b	; 11
 ba6:	80 68       	ori	r24, 0x80	; 128
 ba8:	8b b9       	out	0x0b, r24	; 11
 baa:	8f 85       	ldd	r24, Y+15	; 0x0f
 bac:	0b c0       	rjmp	.+22     	; 0xbc4 <leerTeclado+0x158>
	if (!(PIND & (1 << PIND2))) { PORTD |= (1 << PORTD7); return mapa_teclas[3][3]; }
 bae:	4a 99       	sbic	0x09, 2	; 9
 bb0:	05 c0       	rjmp	.+10     	; 0xbbc <leerTeclado+0x150>
 bb2:	8b b1       	in	r24, 0x0b	; 11
 bb4:	80 68       	ori	r24, 0x80	; 128
 bb6:	8b b9       	out	0x0b, r24	; 11
 bb8:	88 89       	ldd	r24, Y+16	; 0x10
 bba:	04 c0       	rjmp	.+8      	; 0xbc4 <leerTeclado+0x158>
	
	PORTD |= (1 << PORTD7);
 bbc:	8b b1       	in	r24, 0x0b	; 11
 bbe:	80 68       	ori	r24, 0x80	; 128
 bc0:	8b b9       	out	0x0b, r24	; 11
	
	
	return 0xFF;
 bc2:	8f ef       	ldi	r24, 0xFF	; 255
} 
 bc4:	60 96       	adiw	r28, 0x10	; 16
 bc6:	0f b6       	in	r0, 0x3f	; 63
 bc8:	f8 94       	cli
 bca:	de bf       	out	0x3e, r29	; 62
 bcc:	0f be       	out	0x3f, r0	; 63
 bce:	cd bf       	out	0x3d, r28	; 61
 bd0:	df 91       	pop	r29
 bd2:	cf 91       	pop	r28
 bd4:	08 95       	ret

Disassembly of section .text.KEYPAD_Scan:

00001314 <KEYPAD_Scan>:
DEVUELVE:
0 -> NO HAYNUEVA TECLA PRESIONADA
1 -> HAY NUEVA TECLA PRESIONADA Y ES *pkey
********************************************************/
uint8_t KEYPAD_Scan (uint8_t *pkey)
{
    1314:	cf 93       	push	r28
    1316:	df 93       	push	r29
    1318:	ec 01       	movw	r28, r24
	static uint8_t Old_key, Last_valid_key=0xFF; // no hay tecla presionada;
	uint8_t Key;
	Key = leerTeclado(); //devuelve el char.
    131a:	0e 94 36 05 	call	0xa6c	; 0xa6c <leerTeclado>
	if(Key==0xFF){
    131e:	8f 3f       	cpi	r24, 0xFF	; 255
    1320:	31 f4       	brne	.+12     	; 0x132e <KEYPAD_Scan+0x1a>
		Old_key=0xFF; // no hay tecla presionada
    1322:	80 93 2d 01 	sts	0x012D, r24	; 0x80012d <Old_key.1737>
		Last_valid_key=0xFF;
    1326:	80 93 2c 01 	sts	0x012C, r24	; 0x80012c <Last_valid_key.1738>
		return 0;
    132a:	80 e0       	ldi	r24, 0x00	; 0
    132c:	10 c0       	rjmp	.+32     	; 0x134e <KEYPAD_Scan+0x3a>
	}
	if(Key==Old_key) { //2da verificación
    132e:	90 91 2d 01 	lds	r25, 0x012D	; 0x80012d <Old_key.1737>
    1332:	89 13       	cpse	r24, r25
    1334:	09 c0       	rjmp	.+18     	; 0x1348 <KEYPAD_Scan+0x34>
		if(Key!=Last_valid_key){ //evita múltiple detección
    1336:	90 91 2c 01 	lds	r25, 0x012C	; 0x80012c <Last_valid_key.1738>
    133a:	89 17       	cp	r24, r25
    133c:	29 f0       	breq	.+10     	; 0x1348 <KEYPAD_Scan+0x34>
			*pkey=Key;
    133e:	88 83       	st	Y, r24
			Last_valid_key = Key;
    1340:	80 93 2c 01 	sts	0x012C, r24	; 0x80012c <Last_valid_key.1738>
			return 1;
    1344:	81 e0       	ldi	r24, 0x01	; 1
    1346:	03 c0       	rjmp	.+6      	; 0x134e <KEYPAD_Scan+0x3a>
		}
	}
	Old_key=Key; //1era verificación
    1348:	80 93 2d 01 	sts	0x012D, r24	; 0x80012d <Old_key.1737>
	return 0;
    134c:	80 e0       	ldi	r24, 0x00	; 0
}
    134e:	df 91       	pop	r29
    1350:	cf 91       	pop	r28
    1352:	08 95       	ret

Disassembly of section .text.LCDsendChar:

00000d16 <LCDsendChar>:
}

//LCD cursor home
void LCDhome(void)			
{
	LCDsendCommand(1<<LCD_HOME);
 d16:	65 b1       	in	r22, 0x05	; 5
 d18:	98 2f       	mov	r25, r24
 d1a:	90 74       	andi	r25, 0x40	; 64
 d1c:	49 2f       	mov	r20, r25
 d1e:	50 e0       	ldi	r21, 0x00	; 0
 d20:	55 95       	asr	r21
 d22:	47 95       	ror	r20
 d24:	55 95       	asr	r21
 d26:	47 95       	ror	r20
 d28:	55 95       	asr	r21
 d2a:	47 95       	ror	r20
 d2c:	55 95       	asr	r21
 d2e:	47 95       	ror	r20
 d30:	98 2f       	mov	r25, r24
 d32:	90 78       	andi	r25, 0x80	; 128
 d34:	29 2f       	mov	r18, r25
 d36:	30 e0       	ldi	r19, 0x00	; 0
 d38:	02 2e       	mov	r0, r18
 d3a:	23 2f       	mov	r18, r19
 d3c:	00 0c       	add	r0, r0
 d3e:	22 1f       	adc	r18, r18
 d40:	33 0b       	sbc	r19, r19
 d42:	00 0c       	add	r0, r0
 d44:	22 1f       	adc	r18, r18
 d46:	33 1f       	adc	r19, r19
 d48:	96 2f       	mov	r25, r22
 d4a:	99 7f       	andi	r25, 0xF9	; 249
 d4c:	49 2b       	or	r20, r25
 d4e:	24 2b       	or	r18, r20
 d50:	25 b9       	out	0x05, r18	; 5
 d52:	68 b1       	in	r22, 0x08	; 8
 d54:	98 2f       	mov	r25, r24
 d56:	90 71       	andi	r25, 0x10	; 16
 d58:	49 2f       	mov	r20, r25
 d5a:	50 e0       	ldi	r21, 0x00	; 0
 d5c:	55 95       	asr	r21
 d5e:	47 95       	ror	r20
 d60:	55 95       	asr	r21
 d62:	47 95       	ror	r20
 d64:	55 95       	asr	r21
 d66:	47 95       	ror	r20
 d68:	98 2f       	mov	r25, r24
 d6a:	90 72       	andi	r25, 0x20	; 32
 d6c:	29 2f       	mov	r18, r25
 d6e:	30 e0       	ldi	r19, 0x00	; 0
 d70:	35 95       	asr	r19
 d72:	27 95       	ror	r18
 d74:	35 95       	asr	r19
 d76:	27 95       	ror	r18
 d78:	35 95       	asr	r19
 d7a:	27 95       	ror	r18
 d7c:	96 2f       	mov	r25, r22
 d7e:	99 7f       	andi	r25, 0xF9	; 249
 d80:	49 2b       	or	r20, r25
 d82:	24 2b       	or	r18, r20
 d84:	28 b9       	out	0x08, r18	; 8
 d86:	9b b1       	in	r25, 0x0b	; 11
 d88:	92 60       	ori	r25, 0x02	; 2
 d8a:	9b b9       	out	0x0b, r25	; 11
 d8c:	9b b1       	in	r25, 0x0b	; 11
 d8e:	91 60       	ori	r25, 0x01	; 1
 d90:	9b b9       	out	0x0b, r25	; 11
 d92:	25 ed       	ldi	r18, 0xD5	; 213
 d94:	2a 95       	dec	r18
 d96:	f1 f7       	brne	.-4      	; 0xd94 <LCDsendChar+0x7e>
 d98:	00 00       	nop
 d9a:	9b b1       	in	r25, 0x0b	; 11
 d9c:	9e 7f       	andi	r25, 0xFE	; 254
 d9e:	9b b9       	out	0x0b, r25	; 11
 da0:	9b b1       	in	r25, 0x0b	; 11
 da2:	9d 7f       	andi	r25, 0xFD	; 253
 da4:	9b b9       	out	0x0b, r25	; 11
 da6:	95 ed       	ldi	r25, 0xD5	; 213
 da8:	9a 95       	dec	r25
 daa:	f1 f7       	brne	.-4      	; 0xda8 <LCDsendChar+0x92>
 dac:	00 00       	nop
 dae:	65 b1       	in	r22, 0x05	; 5
 db0:	20 e1       	ldi	r18, 0x10	; 16
 db2:	82 9f       	mul	r24, r18
 db4:	c0 01       	movw	r24, r0
 db6:	11 24       	eor	r1, r1
 db8:	ac 01       	movw	r20, r24
 dba:	40 74       	andi	r20, 0x40	; 64
 dbc:	55 27       	eor	r21, r21
 dbe:	55 95       	asr	r21
 dc0:	47 95       	ror	r20
 dc2:	55 95       	asr	r21
 dc4:	47 95       	ror	r20
 dc6:	55 95       	asr	r21
 dc8:	47 95       	ror	r20
 dca:	55 95       	asr	r21
 dcc:	47 95       	ror	r20
 dce:	9c 01       	movw	r18, r24
 dd0:	20 78       	andi	r18, 0x80	; 128
 dd2:	33 27       	eor	r19, r19
 dd4:	02 2e       	mov	r0, r18
 dd6:	23 2f       	mov	r18, r19
 dd8:	00 0c       	add	r0, r0
 dda:	22 1f       	adc	r18, r18
 ddc:	33 0b       	sbc	r19, r19
 dde:	00 0c       	add	r0, r0
 de0:	22 1f       	adc	r18, r18
 de2:	33 1f       	adc	r19, r19
 de4:	36 2f       	mov	r19, r22
 de6:	39 7f       	andi	r19, 0xF9	; 249
 de8:	43 2b       	or	r20, r19
 dea:	24 2b       	or	r18, r20
 dec:	25 b9       	out	0x05, r18	; 5
 dee:	48 b1       	in	r20, 0x08	; 8
 df0:	9c 01       	movw	r18, r24
 df2:	20 71       	andi	r18, 0x10	; 16
 df4:	33 27       	eor	r19, r19
 df6:	35 95       	asr	r19
 df8:	27 95       	ror	r18
 dfa:	35 95       	asr	r19
 dfc:	27 95       	ror	r18
 dfe:	35 95       	asr	r19
 e00:	27 95       	ror	r18
 e02:	80 72       	andi	r24, 0x20	; 32
 e04:	99 27       	eor	r25, r25
 e06:	95 95       	asr	r25
 e08:	87 95       	ror	r24
 e0a:	95 95       	asr	r25
 e0c:	87 95       	ror	r24
 e0e:	95 95       	asr	r25
 e10:	87 95       	ror	r24
 e12:	94 2f       	mov	r25, r20
 e14:	99 7f       	andi	r25, 0xF9	; 249
 e16:	29 2b       	or	r18, r25
 e18:	82 2b       	or	r24, r18
 e1a:	88 b9       	out	0x08, r24	; 8
 e1c:	8b b1       	in	r24, 0x0b	; 11
 e1e:	82 60       	ori	r24, 0x02	; 2
 e20:	8b b9       	out	0x0b, r24	; 11
 e22:	8b b1       	in	r24, 0x0b	; 11
 e24:	81 60       	ori	r24, 0x01	; 1
 e26:	8b b9       	out	0x0b, r24	; 11
 e28:	85 ed       	ldi	r24, 0xD5	; 213
 e2a:	8a 95       	dec	r24
 e2c:	f1 f7       	brne	.-4      	; 0xe2a <LCDsendChar+0x114>
 e2e:	00 00       	nop
 e30:	8b b1       	in	r24, 0x0b	; 11
 e32:	8e 7f       	andi	r24, 0xFE	; 254
 e34:	8b b9       	out	0x0b, r24	; 11
 e36:	8b b1       	in	r24, 0x0b	; 11
 e38:	8d 7f       	andi	r24, 0xFD	; 253
 e3a:	8b b9       	out	0x0b, r24	; 11
 e3c:	95 ed       	ldi	r25, 0xD5	; 213
 e3e:	9a 95       	dec	r25
 e40:	f1 f7       	brne	.-4      	; 0xe3e <LCDsendChar+0x128>
 e42:	00 00       	nop
 e44:	08 95       	ret

Disassembly of section .text.LCDsendCommand:

00000e46 <LCDsendCommand>:
 e46:	65 b1       	in	r22, 0x05	; 5
 e48:	98 2f       	mov	r25, r24
 e4a:	90 74       	andi	r25, 0x40	; 64
 e4c:	49 2f       	mov	r20, r25
 e4e:	50 e0       	ldi	r21, 0x00	; 0
 e50:	55 95       	asr	r21
 e52:	47 95       	ror	r20
 e54:	55 95       	asr	r21
 e56:	47 95       	ror	r20
 e58:	55 95       	asr	r21
 e5a:	47 95       	ror	r20
 e5c:	55 95       	asr	r21
 e5e:	47 95       	ror	r20
 e60:	98 2f       	mov	r25, r24
 e62:	90 78       	andi	r25, 0x80	; 128
 e64:	29 2f       	mov	r18, r25
 e66:	30 e0       	ldi	r19, 0x00	; 0
 e68:	02 2e       	mov	r0, r18
 e6a:	23 2f       	mov	r18, r19
 e6c:	00 0c       	add	r0, r0
 e6e:	22 1f       	adc	r18, r18
 e70:	33 0b       	sbc	r19, r19
 e72:	00 0c       	add	r0, r0
 e74:	22 1f       	adc	r18, r18
 e76:	33 1f       	adc	r19, r19
 e78:	96 2f       	mov	r25, r22
 e7a:	99 7f       	andi	r25, 0xF9	; 249
 e7c:	49 2b       	or	r20, r25
 e7e:	24 2b       	or	r18, r20
 e80:	25 b9       	out	0x05, r18	; 5
 e82:	68 b1       	in	r22, 0x08	; 8
 e84:	98 2f       	mov	r25, r24
 e86:	90 71       	andi	r25, 0x10	; 16
 e88:	49 2f       	mov	r20, r25
 e8a:	50 e0       	ldi	r21, 0x00	; 0
 e8c:	55 95       	asr	r21
 e8e:	47 95       	ror	r20
 e90:	55 95       	asr	r21
 e92:	47 95       	ror	r20
 e94:	55 95       	asr	r21
 e96:	47 95       	ror	r20
 e98:	98 2f       	mov	r25, r24
 e9a:	90 72       	andi	r25, 0x20	; 32
 e9c:	29 2f       	mov	r18, r25
 e9e:	30 e0       	ldi	r19, 0x00	; 0
 ea0:	35 95       	asr	r19
 ea2:	27 95       	ror	r18
 ea4:	35 95       	asr	r19
 ea6:	27 95       	ror	r18
 ea8:	35 95       	asr	r19
 eaa:	27 95       	ror	r18
 eac:	96 2f       	mov	r25, r22
 eae:	99 7f       	andi	r25, 0xF9	; 249
 eb0:	49 2b       	or	r20, r25
 eb2:	24 2b       	or	r18, r20
 eb4:	28 b9       	out	0x08, r18	; 8
 eb6:	9b b1       	in	r25, 0x0b	; 11
 eb8:	91 60       	ori	r25, 0x01	; 1
 eba:	9b b9       	out	0x0b, r25	; 11
 ebc:	ef e9       	ldi	r30, 0x9F	; 159
 ebe:	ff e0       	ldi	r31, 0x0F	; 15
 ec0:	31 97       	sbiw	r30, 0x01	; 1
 ec2:	f1 f7       	brne	.-4      	; 0xec0 <LCDsendCommand+0x7a>
 ec4:	00 c0       	rjmp	.+0      	; 0xec6 <LCDsendCommand+0x80>
 ec6:	00 00       	nop
 ec8:	9b b1       	in	r25, 0x0b	; 11
 eca:	9e 7f       	andi	r25, 0xFE	; 254
 ecc:	9b b9       	out	0x0b, r25	; 11
 ece:	ef e9       	ldi	r30, 0x9F	; 159
 ed0:	ff e0       	ldi	r31, 0x0F	; 15
 ed2:	31 97       	sbiw	r30, 0x01	; 1
 ed4:	f1 f7       	brne	.-4      	; 0xed2 <LCDsendCommand+0x8c>
 ed6:	00 c0       	rjmp	.+0      	; 0xed8 <LCDsendCommand+0x92>
 ed8:	00 00       	nop
 eda:	65 b1       	in	r22, 0x05	; 5
 edc:	f0 e1       	ldi	r31, 0x10	; 16
 ede:	8f 9f       	mul	r24, r31
 ee0:	c0 01       	movw	r24, r0
 ee2:	11 24       	eor	r1, r1
 ee4:	ac 01       	movw	r20, r24
 ee6:	40 74       	andi	r20, 0x40	; 64
 ee8:	55 27       	eor	r21, r21
 eea:	55 95       	asr	r21
 eec:	47 95       	ror	r20
 eee:	55 95       	asr	r21
 ef0:	47 95       	ror	r20
 ef2:	55 95       	asr	r21
 ef4:	47 95       	ror	r20
 ef6:	55 95       	asr	r21
 ef8:	47 95       	ror	r20
 efa:	9c 01       	movw	r18, r24
 efc:	20 78       	andi	r18, 0x80	; 128
 efe:	33 27       	eor	r19, r19
 f00:	02 2e       	mov	r0, r18
 f02:	23 2f       	mov	r18, r19
 f04:	00 0c       	add	r0, r0
 f06:	22 1f       	adc	r18, r18
 f08:	33 0b       	sbc	r19, r19
 f0a:	00 0c       	add	r0, r0
 f0c:	22 1f       	adc	r18, r18
 f0e:	33 1f       	adc	r19, r19
 f10:	36 2f       	mov	r19, r22
 f12:	39 7f       	andi	r19, 0xF9	; 249
 f14:	43 2b       	or	r20, r19
 f16:	24 2b       	or	r18, r20
 f18:	25 b9       	out	0x05, r18	; 5
 f1a:	48 b1       	in	r20, 0x08	; 8
 f1c:	9c 01       	movw	r18, r24
 f1e:	20 71       	andi	r18, 0x10	; 16
 f20:	33 27       	eor	r19, r19
 f22:	35 95       	asr	r19
 f24:	27 95       	ror	r18
 f26:	35 95       	asr	r19
 f28:	27 95       	ror	r18
 f2a:	35 95       	asr	r19
 f2c:	27 95       	ror	r18
 f2e:	80 72       	andi	r24, 0x20	; 32
 f30:	99 27       	eor	r25, r25
 f32:	95 95       	asr	r25
 f34:	87 95       	ror	r24
 f36:	95 95       	asr	r25
 f38:	87 95       	ror	r24
 f3a:	95 95       	asr	r25
 f3c:	87 95       	ror	r24
 f3e:	94 2f       	mov	r25, r20
 f40:	99 7f       	andi	r25, 0xF9	; 249
 f42:	29 2b       	or	r18, r25
 f44:	82 2b       	or	r24, r18
 f46:	88 b9       	out	0x08, r24	; 8
 f48:	8b b1       	in	r24, 0x0b	; 11
 f4a:	81 60       	ori	r24, 0x01	; 1
 f4c:	8b b9       	out	0x0b, r24	; 11
 f4e:	8f e9       	ldi	r24, 0x9F	; 159
 f50:	9f e0       	ldi	r25, 0x0F	; 15
 f52:	01 97       	sbiw	r24, 0x01	; 1
 f54:	f1 f7       	brne	.-4      	; 0xf52 <LCDsendCommand+0x10c>
 f56:	00 c0       	rjmp	.+0      	; 0xf58 <LCDsendCommand+0x112>
 f58:	00 00       	nop
 f5a:	8b b1       	in	r24, 0x0b	; 11
 f5c:	8e 7f       	andi	r24, 0xFE	; 254
 f5e:	8b b9       	out	0x0b, r24	; 11
 f60:	ef e9       	ldi	r30, 0x9F	; 159
 f62:	ff e0       	ldi	r31, 0x0F	; 15
 f64:	31 97       	sbiw	r30, 0x01	; 1
 f66:	f1 f7       	brne	.-4      	; 0xf64 <LCDsendCommand+0x11e>
 f68:	00 c0       	rjmp	.+0      	; 0xf6a <LCDsendCommand+0x124>
 f6a:	00 00       	nop
 f6c:	08 95       	ret

Disassembly of section .text.LCDclr:

0000151c <LCDclr>:
}

//Clears LCD
void LCDclr(void)				
{
	LCDsendCommand(1<<LCD_CLR);
    151c:	81 e0       	ldi	r24, 0x01	; 1
    151e:	0e 94 23 07 	call	0xe46	; 0xe46 <LCDsendCommand>
    1522:	08 95       	ret

Disassembly of section .text.LCDstring:

0000142a <LCDstring>:
	LCDsendCommand(1<<LCD_HOME);
}

//Outputs string to LCD
void LCDstring(uint8_t* data, uint8_t nBytes)	
{
    142a:	0f 93       	push	r16
    142c:	1f 93       	push	r17
    142e:	cf 93       	push	r28
    1430:	df 93       	push	r29
register uint8_t i;

	// check to make sure we have a good pointer
	if (!data) return;
    1432:	00 97       	sbiw	r24, 0x00	; 0
    1434:	69 f0       	breq	.+26     	; 0x1450 <LCDstring+0x26>
    1436:	d6 2f       	mov	r29, r22
    1438:	8c 01       	movw	r16, r24
    143a:	c0 e0       	ldi	r28, 0x00	; 0
    143c:	07 c0       	rjmp	.+14     	; 0x144c <LCDstring+0x22>
	// print data
	for(i=0; i<nBytes; i++)
	{
		LCDsendChar(data[i]);
    143e:	f8 01       	movw	r30, r16
    1440:	ec 0f       	add	r30, r28
    1442:	f1 1d       	adc	r31, r1
    1444:	80 81       	ld	r24, Z
    1446:	0e 94 8b 06 	call	0xd16	; 0xd16 <LCDsendChar>
register uint8_t i;

	// check to make sure we have a good pointer
	if (!data) return;
	// print data
	for(i=0; i<nBytes; i++)
    144a:	cf 5f       	subi	r28, 0xFF	; 255
    144c:	cd 17       	cp	r28, r29
    144e:	b8 f3       	brcs	.-18     	; 0x143e <LCDstring+0x14>
	{
		LCDsendChar(data[i]);
	}
}
    1450:	df 91       	pop	r29
    1452:	cf 91       	pop	r28
    1454:	1f 91       	pop	r17
    1456:	0f 91       	pop	r16
    1458:	08 95       	ret

Disassembly of section .text.LCDGotoXY:

000014aa <LCDGotoXY>:
//Cursor to X Y position
void LCDGotoXY(uint8_t x, uint8_t y)	
{
	register uint8_t DDRAMAddr;
	// remap lines into proper order
	switch(y)
    14aa:	62 30       	cpi	r22, 0x02	; 2
    14ac:	31 f0       	breq	.+12     	; 0x14ba <LCDGotoXY+0x10>
    14ae:	63 30       	cpi	r22, 0x03	; 3
    14b0:	31 f0       	breq	.+12     	; 0x14be <LCDGotoXY+0x14>
    14b2:	61 30       	cpi	r22, 0x01	; 1
    14b4:	29 f4       	brne	.+10     	; 0x14c0 <LCDGotoXY+0x16>
	{
	case 0: DDRAMAddr = LCD_LINE0_DDRAMADDR+x; break;
	case 1: DDRAMAddr = LCD_LINE1_DDRAMADDR+x; break;
    14b6:	80 5c       	subi	r24, 0xC0	; 192
    14b8:	03 c0       	rjmp	.+6      	; 0x14c0 <LCDGotoXY+0x16>
	case 2: DDRAMAddr = LCD_LINE2_DDRAMADDR+x; break;
    14ba:	8c 5e       	subi	r24, 0xEC	; 236
    14bc:	01 c0       	rjmp	.+2      	; 0x14c0 <LCDGotoXY+0x16>
	case 3: DDRAMAddr = LCD_LINE3_DDRAMADDR+x; break;
    14be:	8c 5a       	subi	r24, 0xAC	; 172
	default: DDRAMAddr = LCD_LINE0_DDRAMADDR+x;
	}
	// set data address
	LCDsendCommand(1<<LCD_DDRAM | DDRAMAddr);
    14c0:	80 68       	ori	r24, 0x80	; 128
    14c2:	0e 94 23 07 	call	0xe46	; 0xe46 <LCDsendCommand>
    14c6:	08 95       	ret

Disassembly of section .text.LCDdefinechar:

000011a2 <LCDdefinechar>:
}

//LCD cursor home
void LCDhome(void)			
{
	LCDsendCommand(1<<LCD_HOME);
    11a2:	cf 92       	push	r12
    11a4:	df 92       	push	r13
    11a6:	ef 92       	push	r14
    11a8:	0f 93       	push	r16
    11aa:	1f 93       	push	r17
    11ac:	cf 93       	push	r28
    11ae:	df 93       	push	r29
    11b0:	6b 01       	movw	r12, r22
    11b2:	e8 2e       	mov	r14, r24
    11b4:	84 2f       	mov	r24, r20
    11b6:	90 e0       	ldi	r25, 0x00	; 0
    11b8:	88 0f       	add	r24, r24
    11ba:	99 1f       	adc	r25, r25
    11bc:	88 0f       	add	r24, r24
    11be:	99 1f       	adc	r25, r25
    11c0:	88 0f       	add	r24, r24
    11c2:	99 1f       	adc	r25, r25
    11c4:	80 64       	ori	r24, 0x40	; 64
    11c6:	00 e0       	ldi	r16, 0x00	; 0
    11c8:	10 e0       	ldi	r17, 0x00	; 0
    11ca:	15 c0       	rjmp	.+42     	; 0x11f6 <LCDdefinechar+0x54>
    11cc:	4e 2d       	mov	r20, r14
    11ce:	96 01       	movw	r18, r12
    11d0:	20 0f       	add	r18, r16
    11d2:	31 1f       	adc	r19, r17
    11d4:	41 1d       	adc	r20, r1
    11d6:	17 fd       	sbrc	r17, 7
    11d8:	4a 95       	dec	r20
    11da:	64 2f       	mov	r22, r20
    11dc:	a9 01       	movw	r20, r18
    11de:	fa 01       	movw	r30, r20
    11e0:	c4 91       	lpm	r28, Z
    11e2:	d1 e0       	ldi	r29, 0x01	; 1
    11e4:	d8 0f       	add	r29, r24
    11e6:	0e 94 23 07 	call	0xe46	; 0xe46 <LCDsendCommand>
    11ea:	8c 2f       	mov	r24, r28
    11ec:	0e 94 8b 06 	call	0xd16	; 0xd16 <LCDsendChar>
    11f0:	0f 5f       	subi	r16, 0xFF	; 255
    11f2:	1f 4f       	sbci	r17, 0xFF	; 255
    11f4:	8d 2f       	mov	r24, r29
    11f6:	08 30       	cpi	r16, 0x08	; 8
    11f8:	11 05       	cpc	r17, r1
    11fa:	40 f3       	brcs	.-48     	; 0x11cc <LCDdefinechar+0x2a>
    11fc:	df 91       	pop	r29
    11fe:	cf 91       	pop	r28
    1200:	1f 91       	pop	r17
    1202:	0f 91       	pop	r16
    1204:	ef 90       	pop	r14
    1206:	df 90       	pop	r13
    1208:	cf 90       	pop	r12
    120a:	08 95       	ret

Disassembly of section .text.LCDinit:

00000f6e <LCDinit>:
     f6e:	cf 93       	push	r28
     f70:	df 93       	push	r29
     f72:	2f ef       	ldi	r18, 0xFF	; 255
     f74:	86 e7       	ldi	r24, 0x76	; 118
     f76:	91 e0       	ldi	r25, 0x01	; 1
     f78:	21 50       	subi	r18, 0x01	; 1
     f7a:	80 40       	sbci	r24, 0x00	; 0
     f7c:	90 40       	sbci	r25, 0x00	; 0
     f7e:	e1 f7       	brne	.-8      	; 0xf78 <LCDinit+0xa>
     f80:	00 c0       	rjmp	.+0      	; 0xf82 <LCDinit+0x14>
     f82:	00 00       	nop
     f84:	85 b1       	in	r24, 0x05	; 5
     f86:	89 7f       	andi	r24, 0xF9	; 249
     f88:	85 b9       	out	0x05, r24	; 5
     f8a:	88 b1       	in	r24, 0x08	; 8
     f8c:	89 7f       	andi	r24, 0xF9	; 249
     f8e:	88 b9       	out	0x08, r24	; 8
     f90:	1b b8       	out	0x0b, r1	; 11
     f92:	84 b1       	in	r24, 0x04	; 4
     f94:	86 60       	ori	r24, 0x06	; 6
     f96:	84 b9       	out	0x04, r24	; 4
     f98:	87 b1       	in	r24, 0x07	; 7
     f9a:	86 60       	ori	r24, 0x06	; 6
     f9c:	87 b9       	out	0x07, r24	; 7
     f9e:	8a b1       	in	r24, 0x0a	; 10
     fa0:	83 60       	ori	r24, 0x03	; 3
     fa2:	8a b9       	out	0x0a, r24	; 10
     fa4:	85 b1       	in	r24, 0x05	; 5
     fa6:	89 7f       	andi	r24, 0xF9	; 249
     fa8:	85 b9       	out	0x05, r24	; 5
     faa:	88 b1       	in	r24, 0x08	; 8
     fac:	86 60       	ori	r24, 0x06	; 6
     fae:	88 b9       	out	0x08, r24	; 8
     fb0:	8b b1       	in	r24, 0x0b	; 11
     fb2:	81 60       	ori	r24, 0x01	; 1
     fb4:	8b b9       	out	0x0b, r24	; 11
     fb6:	8f e9       	ldi	r24, 0x9F	; 159
     fb8:	9f e0       	ldi	r25, 0x0F	; 15
     fba:	01 97       	sbiw	r24, 0x01	; 1
     fbc:	f1 f7       	brne	.-4      	; 0xfba <LCDinit+0x4c>
     fbe:	00 c0       	rjmp	.+0      	; 0xfc0 <LCDinit+0x52>
     fc0:	00 00       	nop
     fc2:	8b b1       	in	r24, 0x0b	; 11
     fc4:	8e 7f       	andi	r24, 0xFE	; 254
     fc6:	8b b9       	out	0x0b, r24	; 11
     fc8:	8f e9       	ldi	r24, 0x9F	; 159
     fca:	9f e0       	ldi	r25, 0x0F	; 15
     fcc:	01 97       	sbiw	r24, 0x01	; 1
     fce:	f1 f7       	brne	.-4      	; 0xfcc <LCDinit+0x5e>
     fd0:	00 c0       	rjmp	.+0      	; 0xfd2 <LCDinit+0x64>
     fd2:	00 00       	nop
     fd4:	85 b1       	in	r24, 0x05	; 5
     fd6:	89 7f       	andi	r24, 0xF9	; 249
     fd8:	85 b9       	out	0x05, r24	; 5
     fda:	88 b1       	in	r24, 0x08	; 8
     fdc:	86 60       	ori	r24, 0x06	; 6
     fde:	88 b9       	out	0x08, r24	; 8
     fe0:	8b b1       	in	r24, 0x0b	; 11
     fe2:	81 60       	ori	r24, 0x01	; 1
     fe4:	8b b9       	out	0x0b, r24	; 11
     fe6:	8f e9       	ldi	r24, 0x9F	; 159
     fe8:	9f e0       	ldi	r25, 0x0F	; 15
     fea:	01 97       	sbiw	r24, 0x01	; 1
     fec:	f1 f7       	brne	.-4      	; 0xfea <LCDinit+0x7c>
     fee:	00 c0       	rjmp	.+0      	; 0xff0 <LCDinit+0x82>
     ff0:	00 00       	nop
     ff2:	8b b1       	in	r24, 0x0b	; 11
     ff4:	8e 7f       	andi	r24, 0xFE	; 254
     ff6:	8b b9       	out	0x0b, r24	; 11
     ff8:	8f e9       	ldi	r24, 0x9F	; 159
     ffa:	9f e0       	ldi	r25, 0x0F	; 15
     ffc:	01 97       	sbiw	r24, 0x01	; 1
     ffe:	f1 f7       	brne	.-4      	; 0xffc <LCDinit+0x8e>
    1000:	00 c0       	rjmp	.+0      	; 0x1002 <LCDinit+0x94>
    1002:	00 00       	nop
    1004:	85 b1       	in	r24, 0x05	; 5
    1006:	89 7f       	andi	r24, 0xF9	; 249
    1008:	85 b9       	out	0x05, r24	; 5
    100a:	88 b1       	in	r24, 0x08	; 8
    100c:	89 7f       	andi	r24, 0xF9	; 249
    100e:	84 60       	ori	r24, 0x04	; 4
    1010:	88 b9       	out	0x08, r24	; 8
    1012:	8b b1       	in	r24, 0x0b	; 11
    1014:	81 60       	ori	r24, 0x01	; 1
    1016:	8b b9       	out	0x0b, r24	; 11
    1018:	8f e9       	ldi	r24, 0x9F	; 159
    101a:	9f e0       	ldi	r25, 0x0F	; 15
    101c:	01 97       	sbiw	r24, 0x01	; 1
    101e:	f1 f7       	brne	.-4      	; 0x101c <LCDinit+0xae>
    1020:	00 c0       	rjmp	.+0      	; 0x1022 <LCDinit+0xb4>
    1022:	00 00       	nop
    1024:	8b b1       	in	r24, 0x0b	; 11
    1026:	8e 7f       	andi	r24, 0xFE	; 254
    1028:	8b b9       	out	0x0b, r24	; 11
    102a:	8f e9       	ldi	r24, 0x9F	; 159
    102c:	9f e0       	ldi	r25, 0x0F	; 15
    102e:	01 97       	sbiw	r24, 0x01	; 1
    1030:	f1 f7       	brne	.-4      	; 0x102e <LCDinit+0xc0>
    1032:	00 c0       	rjmp	.+0      	; 0x1034 <LCDinit+0xc6>
    1034:	00 00       	nop
    1036:	88 e2       	ldi	r24, 0x28	; 40
    1038:	0e 94 23 07 	call	0xe46	; 0xe46 <LCDsendCommand>
    103c:	8c e0       	ldi	r24, 0x0C	; 12
    103e:	0e 94 23 07 	call	0xe46	; 0xe46 <LCDsendCommand>
    1042:	40 e0       	ldi	r20, 0x00	; 0
    1044:	c0 e0       	ldi	r28, 0x00	; 0
    1046:	0e c0       	rjmp	.+28     	; 0x1064 <LCDinit+0xf6>
    1048:	d1 e0       	ldi	r29, 0x01	; 1
    104a:	d4 0f       	add	r29, r20
    104c:	8c 2f       	mov	r24, r28
    104e:	90 e0       	ldi	r25, 0x00	; 0
    1050:	a0 e0       	ldi	r26, 0x00	; 0
    1052:	bc 01       	movw	r22, r24
    1054:	8a 2f       	mov	r24, r26
    1056:	66 52       	subi	r22, 0x26	; 38
    1058:	7f 4f       	sbci	r23, 0xFF	; 255
    105a:	8f 4f       	sbci	r24, 0xFF	; 255
    105c:	0e 94 d1 08 	call	0x11a2	; 0x11a2 <LCDdefinechar>
    1060:	c8 5f       	subi	r28, 0xF8	; 248
    1062:	4d 2f       	mov	r20, r29
    1064:	c0 34       	cpi	r28, 0x40	; 64
    1066:	80 f3       	brcs	.-32     	; 0x1048 <LCDinit+0xda>
    1068:	df 91       	pop	r29
    106a:	cf 91       	pop	r28
    106c:	08 95       	ret

Disassembly of section .text.init_timer:

000014e6 <init_timer>:
#include "MEF.h"
volatile uint8_t flag10ms = 0;

void init_timer()
{
	TCCR0A |= (1 << WGM01);
    14e6:	84 b5       	in	r24, 0x24	; 36
    14e8:	82 60       	ori	r24, 0x02	; 2
    14ea:	84 bd       	out	0x24, r24	; 36
	OCR0A = (F_CPU / 1024) * 0.01;
    14ec:	8c e9       	ldi	r24, 0x9C	; 156
    14ee:	87 bd       	out	0x27, r24	; 39
	TIMSK0 |= (1 << OCIE0A);
    14f0:	ee e6       	ldi	r30, 0x6E	; 110
    14f2:	f0 e0       	ldi	r31, 0x00	; 0
    14f4:	80 81       	ld	r24, Z
    14f6:	82 60       	ori	r24, 0x02	; 2
    14f8:	80 83       	st	Z, r24
	TCCR0B |= (1 << CS02) | (1 << CS00);
    14fa:	85 b5       	in	r24, 0x25	; 37
    14fc:	85 60       	ori	r24, 0x05	; 5
    14fe:	85 bd       	out	0x25, r24	; 37
    1500:	08 95       	ret

Disassembly of section .text.__vector_14:

000014c8 <__vector_14>:
}
ISR(TIMER0_COMPA_vect) {
    14c8:	1f 92       	push	r1
    14ca:	0f 92       	push	r0
    14cc:	0f b6       	in	r0, 0x3f	; 63
    14ce:	0f 92       	push	r0
    14d0:	11 24       	eor	r1, r1
    14d2:	8f 93       	push	r24
	flag10ms = 1;
    14d4:	81 e0       	ldi	r24, 0x01	; 1
    14d6:	80 93 2e 01 	sts	0x012E, r24	; 0x80012e <flag10ms>
}
    14da:	8f 91       	pop	r24
    14dc:	0f 90       	pop	r0
    14de:	0f be       	out	0x3f, r0	; 63
    14e0:	0f 90       	pop	r0
    14e2:	1f 90       	pop	r1
    14e4:	18 95       	reti

Disassembly of section .text.init_ports:

000012c4 <init_ports>:
void init_ports(void) {
	// 1. Configuro los puertos para los LEDs.
	/* Los configuro como salida */
	DDRB |= (1 << DDB5);
    12c4:	84 b1       	in	r24, 0x04	; 4
    12c6:	80 62       	ori	r24, 0x20	; 32
    12c8:	84 b9       	out	0x04, r24	; 4
	DDRC |= (1 << DDC4) | (1 << DDC5);
    12ca:	87 b1       	in	r24, 0x07	; 7
    12cc:	80 63       	ori	r24, 0x30	; 48
    12ce:	87 b9       	out	0x07, r24	; 7
	
	/* Por defecto deben estar apagados */
	PORTB &= ~(1 << PORTB5);
    12d0:	85 b1       	in	r24, 0x05	; 5
    12d2:	8f 7d       	andi	r24, 0xDF	; 223
    12d4:	85 b9       	out	0x05, r24	; 5
	PORTC &= ~((1 << PORTC4) | (1 << PORTC5));
    12d6:	88 b1       	in	r24, 0x08	; 8
    12d8:	8f 7c       	andi	r24, 0xCF	; 207
    12da:	88 b9       	out	0x08, r24	; 8
	
	
	// 2. Configuro los puertos para el DISPLAY LED
	/* Los configuro como salida */
	DDRC |= (1 << DDC1) | (1 << DDC2);
    12dc:	87 b1       	in	r24, 0x07	; 7
    12de:	86 60       	ori	r24, 0x06	; 6
    12e0:	87 b9       	out	0x07, r24	; 7
	DDRB |= (1 << DDB1) | (1 << DDB2);
    12e2:	84 b1       	in	r24, 0x04	; 4
    12e4:	86 60       	ori	r24, 0x06	; 6
    12e6:	84 b9       	out	0x04, r24	; 4
	
	DDRD |= (1 << DDD0) | (1 << DDD1); // E y RS
    12e8:	8a b1       	in	r24, 0x0a	; 10
    12ea:	83 60       	ori	r24, 0x03	; 3
    12ec:	8a b9       	out	0x0a, r24	; 10
	
	
	// 3. Configuro los puertos para la matríz de botones
	/* Configuro los puertos PB0, PB3, PB4 y PD7 como SALIDA */
	DDRB |= (1 << DDB0) | (1 << DDB3) | (1 << DDB4);
    12ee:	84 b1       	in	r24, 0x04	; 4
    12f0:	89 61       	ori	r24, 0x19	; 25
    12f2:	84 b9       	out	0x04, r24	; 4
	DDRD |= (1 << DDD7);
    12f4:	8a b1       	in	r24, 0x0a	; 10
    12f6:	80 68       	ori	r24, 0x80	; 128
    12f8:	8a b9       	out	0x0a, r24	; 10
	
	/* Inicializo las filas en HIGH (para escanear poniendo en LOW) */
	PORTB |= (1 << PORTB4) | (1 << PORTB3) | (1 << PORTB0);
    12fa:	85 b1       	in	r24, 0x05	; 5
    12fc:	89 61       	ori	r24, 0x19	; 25
    12fe:	85 b9       	out	0x05, r24	; 5
	PORTD |= (1 << PORTD7);
    1300:	8b b1       	in	r24, 0x0b	; 11
    1302:	80 68       	ori	r24, 0x80	; 128
    1304:	8b b9       	out	0x0b, r24	; 11
	
	
	/* Configuro los puertos PD2, PD3, PD4, PD5 como ENTRADA */
	DDRD &= ~((1 << DDD2) | (1 << DDD3) | (1 << DDD4) | (1 << DDD5));
    1306:	8a b1       	in	r24, 0x0a	; 10
    1308:	83 7c       	andi	r24, 0xC3	; 195
    130a:	8a b9       	out	0x0a, r24	; 10
	
	/*Habilitar resistencias Pull-Up internas para las columnas*/
	PORTD |= (1 << PORTD2) | (1 << PORTD3) | (1 << PORTD4) | (1 << PORTD5);
    130c:	8b b1       	in	r24, 0x0b	; 11
    130e:	8c 63       	ori	r24, 0x3C	; 60
    1310:	8b b9       	out	0x0b, r24	; 11
    1312:	08 95       	ret

Disassembly of section .text.main:

0000126e <main>:
	
}
int main(void) {
    126e:	cf 93       	push	r28
    1270:	df 93       	push	r29
    1272:	1f 92       	push	r1
    1274:	cd b7       	in	r28, 0x3d	; 61
    1276:	de b7       	in	r29, 0x3e	; 62
	sei();
    1278:	78 94       	sei
	LCDinit();
    127a:	0e 94 b7 07 	call	0xf6e	; 0xf6e <LCDinit>
	iniciarMEF(); //inicializar la máquina de estados. Estado Actual = INICIO.
    127e:	0e 94 81 0a 	call	0x1502	; 0x1502 <iniciarMEF>
	init_ports();
    1282:	0e 94 62 09 	call	0x12c4	; 0x12c4 <init_ports>
	init_timer();	
    1286:	0e 94 73 0a 	call	0x14e6	; 0x14e6 <init_timer>
	LCDGotoXY(1,1);
    128a:	61 e0       	ldi	r22, 0x01	; 1
    128c:	81 e0       	ldi	r24, 0x01	; 1
    128e:	0e 94 55 0a 	call	0x14aa	; 0x14aa <LCDGotoXY>
	char pkey;
	uint8_t flag_key;
	LCDclr();
    1292:	0e 94 8e 0a 	call	0x151c	; 0x151c <LCDclr>
	while (1)
	{
		if(flag10ms == 1)
    1296:	80 91 2e 01 	lds	r24, 0x012E	; 0x80012e <flag10ms>
    129a:	81 30       	cpi	r24, 0x01	; 1
    129c:	e1 f7       	brne	.-8      	; 0x1296 <main+0x28>
		{
			flag10ms = 0;
    129e:	10 92 2e 01 	sts	0x012E, r1	; 0x80012e <flag10ms>
			
			// Leer keypad.
			flag_key = KEYPAD_Scan(&pkey);
    12a2:	ce 01       	movw	r24, r28
    12a4:	01 96       	adiw	r24, 0x01	; 1
    12a6:	0e 94 8a 09 	call	0x1314	; 0x1314 <KEYPAD_Scan>
			
			// Actualizar el estado de la máquina (La MEF se encarga de ignorar la tecla si flag_key es 0).
			actualizarMEF(flag_key, pkey);
    12aa:	69 81       	ldd	r22, Y+1	; 0x01
    12ac:	0e 94 9b 00 	call	0x136	; 0x136 <actualizarMEF>
			
			// actualizar salidas (Siempre, en cada tick).
			LCDGotoXY(1,1);
    12b0:	61 e0       	ldi	r22, 0x01	; 1
    12b2:	81 e0       	ldi	r24, 0x01	; 1
    12b4:	0e 94 55 0a 	call	0x14aa	; 0x14aa <LCDGotoXY>
			LCDstring(actualizarSalida(), 5);
    12b8:	0e 94 eb 05 	call	0xbd6	; 0xbd6 <actualizarSalida>
    12bc:	65 e0       	ldi	r22, 0x05	; 5
    12be:	0e 94 15 0a 	call	0x142a	; 0x142a <LCDstring>
    12c2:	e9 cf       	rjmp	.-46     	; 0x1296 <main+0x28>

Disassembly of section .text.libgcc.div:

0000145a <__divmodhi4>:
    145a:	97 fb       	bst	r25, 7
    145c:	07 2e       	mov	r0, r23
    145e:	16 f4       	brtc	.+4      	; 0x1464 <__divmodhi4+0xa>
    1460:	00 94       	com	r0
    1462:	07 d0       	rcall	.+14     	; 0x1472 <__divmodhi4_neg1>
    1464:	77 fd       	sbrc	r23, 7
    1466:	09 d0       	rcall	.+18     	; 0x147a <__divmodhi4_neg2>
    1468:	0e 94 41 0a 	call	0x1482	; 0x1482 <__udivmodhi4>
    146c:	07 fc       	sbrc	r0, 7
    146e:	05 d0       	rcall	.+10     	; 0x147a <__divmodhi4_neg2>
    1470:	3e f4       	brtc	.+14     	; 0x1480 <__divmodhi4_exit>

00001472 <__divmodhi4_neg1>:
    1472:	90 95       	com	r25
    1474:	81 95       	neg	r24
    1476:	9f 4f       	sbci	r25, 0xFF	; 255
    1478:	08 95       	ret

0000147a <__divmodhi4_neg2>:
    147a:	70 95       	com	r23
    147c:	61 95       	neg	r22
    147e:	7f 4f       	sbci	r23, 0xFF	; 255

00001480 <__divmodhi4_exit>:
    1480:	08 95       	ret

Disassembly of section .text.libgcc.div:

00001482 <__udivmodhi4>:
    1482:	aa 1b       	sub	r26, r26
    1484:	bb 1b       	sub	r27, r27
    1486:	51 e1       	ldi	r21, 0x11	; 17
    1488:	07 c0       	rjmp	.+14     	; 0x1498 <__udivmodhi4_ep>

0000148a <__udivmodhi4_loop>:
    148a:	aa 1f       	adc	r26, r26
    148c:	bb 1f       	adc	r27, r27
    148e:	a6 17       	cp	r26, r22
    1490:	b7 07       	cpc	r27, r23
    1492:	10 f0       	brcs	.+4      	; 0x1498 <__udivmodhi4_ep>
    1494:	a6 1b       	sub	r26, r22
    1496:	b7 0b       	sbc	r27, r23

00001498 <__udivmodhi4_ep>:
    1498:	88 1f       	adc	r24, r24
    149a:	99 1f       	adc	r25, r25
    149c:	5a 95       	dec	r21
    149e:	a9 f7       	brne	.-22     	; 0x148a <__udivmodhi4_loop>
    14a0:	80 95       	com	r24
    14a2:	90 95       	com	r25
    14a4:	bc 01       	movw	r22, r24
    14a6:	cd 01       	movw	r24, r26
    14a8:	08 95       	ret

Disassembly of section .text.avrlibc:

000013f8 <memcpy>:
    13f8:	cf 92       	push	r12
    13fa:	df 92       	push	r13
    13fc:	ef 92       	push	r14
    13fe:	dc 01       	movw	r26, r24
    1400:	6a 01       	movw	r12, r20
    1402:	e6 2e       	mov	r14, r22
    1404:	28 0f       	add	r18, r24
    1406:	39 1f       	adc	r19, r25
    1408:	a2 17       	cp	r26, r18
    140a:	b3 07       	cpc	r27, r19
    140c:	51 f0       	breq	.+20     	; 0x1422 <memcpy+0x2a>
    140e:	f6 01       	movw	r30, r12
    1410:	44 91       	lpm	r20, Z
    1412:	e7 fc       	sbrc	r14, 7
    1414:	40 81       	ld	r20, Z
    1416:	4d 93       	st	X+, r20
    1418:	4f ef       	ldi	r20, 0xFF	; 255
    141a:	c4 1a       	sub	r12, r20
    141c:	d4 0a       	sbc	r13, r20
    141e:	e4 0a       	sbc	r14, r20
    1420:	f3 cf       	rjmp	.-26     	; 0x1408 <memcpy+0x10>
    1422:	ef 90       	pop	r14
    1424:	df 90       	pop	r13
    1426:	cf 90       	pop	r12
    1428:	08 95       	ret

Disassembly of section .text.avrlibc:

0000120c <snprintf>:
    120c:	af e0       	ldi	r26, 0x0F	; 15
    120e:	b0 e0       	ldi	r27, 0x00	; 0
    1210:	ec e0       	ldi	r30, 0x0C	; 12
    1212:	f9 e0       	ldi	r31, 0x09	; 9
    1214:	0c 94 b8 09 	jmp	0x1370	; 0x1370 <__prologue_saves__+0x1c>
    1218:	0e 89       	ldd	r16, Y+22	; 0x16
    121a:	1f 89       	ldd	r17, Y+23	; 0x17
    121c:	88 8d       	ldd	r24, Y+24	; 0x18
    121e:	99 8d       	ldd	r25, Y+25	; 0x19
    1220:	26 e0       	ldi	r18, 0x06	; 6
    1222:	2d 83       	std	Y+5, r18	; 0x05
    1224:	1a 83       	std	Y+2, r17	; 0x02
    1226:	09 83       	std	Y+1, r16	; 0x01
    1228:	97 ff       	sbrs	r25, 7
    122a:	02 c0       	rjmp	.+4      	; 0x1230 <snprintf+0x24>
    122c:	80 e0       	ldi	r24, 0x00	; 0
    122e:	90 e8       	ldi	r25, 0x80	; 128
    1230:	01 97       	sbiw	r24, 0x01	; 1
    1232:	9f 83       	std	Y+7, r25	; 0x07
    1234:	8e 83       	std	Y+6, r24	; 0x06
    1236:	9e 01       	movw	r18, r28
    1238:	23 5e       	subi	r18, 0xE3	; 227
    123a:	3f 4f       	sbci	r19, 0xFF	; 255
    123c:	4a 8d       	ldd	r20, Y+26	; 0x1a
    123e:	5b 8d       	ldd	r21, Y+27	; 0x1b
    1240:	6c 8d       	ldd	r22, Y+28	; 0x1c
    1242:	ce 01       	movw	r24, r28
    1244:	01 96       	adiw	r24, 0x01	; 1
    1246:	0e 94 12 03 	call	0x624	; 0x624 <vfprintf>
    124a:	4e 81       	ldd	r20, Y+6	; 0x06
    124c:	5f 81       	ldd	r21, Y+7	; 0x07
    124e:	57 fd       	sbrc	r21, 7
    1250:	0a c0       	rjmp	.+20     	; 0x1266 <snprintf+0x5a>
    1252:	28 85       	ldd	r18, Y+8	; 0x08
    1254:	39 85       	ldd	r19, Y+9	; 0x09
    1256:	42 17       	cp	r20, r18
    1258:	53 07       	cpc	r21, r19
    125a:	0c f4       	brge	.+2      	; 0x125e <snprintf+0x52>
    125c:	9a 01       	movw	r18, r20
    125e:	f8 01       	movw	r30, r16
    1260:	e2 0f       	add	r30, r18
    1262:	f3 1f       	adc	r31, r19
    1264:	10 82       	st	Z, r1
    1266:	2f 96       	adiw	r28, 0x0f	; 15
    1268:	e4 e0       	ldi	r30, 0x04	; 4
    126a:	0c 94 ef 09 	jmp	0x13de	; 0x13de <__epilogue_restores__+0x1c>

Disassembly of section .text.avrlibc:

00000624 <vfprintf>:
 624:	2f 92       	push	r2
 626:	3f 92       	push	r3
 628:	4f 92       	push	r4
 62a:	6f 92       	push	r6
 62c:	7f 92       	push	r7
 62e:	8f 92       	push	r8
 630:	9f 92       	push	r9
 632:	af 92       	push	r10
 634:	bf 92       	push	r11
 636:	cf 92       	push	r12
 638:	df 92       	push	r13
 63a:	ef 92       	push	r14
 63c:	ff 92       	push	r15
 63e:	0f 93       	push	r16
 640:	1f 93       	push	r17
 642:	cf 93       	push	r28
 644:	df 93       	push	r29
 646:	cd b7       	in	r28, 0x3d	; 61
 648:	de b7       	in	r29, 0x3e	; 62
 64a:	62 97       	sbiw	r28, 0x12	; 18
 64c:	0f b6       	in	r0, 0x3f	; 63
 64e:	f8 94       	cli
 650:	de bf       	out	0x3e, r29	; 62
 652:	0f be       	out	0x3f, r0	; 63
 654:	cd bf       	out	0x3d, r28	; 61
 656:	6c 01       	movw	r12, r24
 658:	3a 01       	movw	r6, r20
 65a:	86 2e       	mov	r8, r22
 65c:	79 01       	movw	r14, r18
 65e:	fc 01       	movw	r30, r24
 660:	10 86       	std	Z+8, r1	; 0x08
 662:	17 82       	std	Z+7, r1	; 0x07
 664:	84 81       	ldd	r24, Z+4	; 0x04
 666:	81 ff       	sbrs	r24, 1
 668:	e7 c1       	rjmp	.+974    	; 0xa38 <__stack+0x139>
 66a:	9e 01       	movw	r18, r28
 66c:	2f 5f       	subi	r18, 0xFF	; 255
 66e:	3f 4f       	sbci	r19, 0xFF	; 255
 670:	3d 87       	std	Y+13, r19	; 0x0d
 672:	2c 87       	std	Y+12, r18	; 0x0c
 674:	c9 01       	movw	r24, r18
 676:	a0 e8       	ldi	r26, 0x80	; 128
 678:	88 8b       	std	Y+16, r24	; 0x10
 67a:	99 8b       	std	Y+17, r25	; 0x11
 67c:	aa 8b       	std	Y+18, r26	; 0x12
 67e:	9f e3       	ldi	r25, 0x3F	; 63
 680:	99 2e       	mov	r9, r25
 682:	f3 01       	movw	r30, r6
 684:	84 91       	lpm	r24, Z
 686:	87 fc       	sbrc	r8, 7
 688:	80 81       	ld	r24, Z
 68a:	88 23       	and	r24, r24
 68c:	09 f4       	brne	.+2      	; 0x690 <vfprintf+0x6c>
 68e:	d0 c1       	rjmp	.+928    	; 0xa30 <__stack+0x131>
 690:	48 2d       	mov	r20, r8
 692:	93 01       	movw	r18, r6
 694:	2f 5f       	subi	r18, 0xFF	; 255
 696:	3f 4f       	sbci	r19, 0xFF	; 255
 698:	4f 4f       	sbci	r20, 0xFF	; 255
 69a:	85 32       	cpi	r24, 0x25	; 37
 69c:	19 f0       	breq	.+6      	; 0x6a4 <vfprintf+0x80>
 69e:	39 01       	movw	r6, r18
 6a0:	84 2e       	mov	r8, r20
 6a2:	0a c0       	rjmp	.+20     	; 0x6b8 <vfprintf+0x94>
 6a4:	f9 01       	movw	r30, r18
 6a6:	84 91       	lpm	r24, Z
 6a8:	47 fd       	sbrc	r20, 7
 6aa:	80 81       	ld	r24, Z
 6ac:	92 e0       	ldi	r25, 0x02	; 2
 6ae:	69 0e       	add	r6, r25
 6b0:	71 1c       	adc	r7, r1
 6b2:	81 1c       	adc	r8, r1
 6b4:	85 32       	cpi	r24, 0x25	; 37
 6b6:	29 f4       	brne	.+10     	; 0x6c2 <vfprintf+0x9e>
 6b8:	b6 01       	movw	r22, r12
 6ba:	90 e0       	ldi	r25, 0x00	; 0
 6bc:	0e 94 95 08 	call	0x112a	; 0x112a <fputc>
 6c0:	e0 cf       	rjmp	.-64     	; 0x682 <vfprintf+0x5e>
 6c2:	b1 2c       	mov	r11, r1
 6c4:	00 e0       	ldi	r16, 0x00	; 0
 6c6:	10 e0       	ldi	r17, 0x00	; 0
 6c8:	10 32       	cpi	r17, 0x20	; 32
 6ca:	a0 f4       	brcc	.+40     	; 0x6f4 <vfprintf+0xd0>
 6cc:	8b 32       	cpi	r24, 0x2B	; 43
 6ce:	69 f0       	breq	.+26     	; 0x6ea <vfprintf+0xc6>
 6d0:	30 f4       	brcc	.+12     	; 0x6de <vfprintf+0xba>
 6d2:	80 32       	cpi	r24, 0x20	; 32
 6d4:	59 f0       	breq	.+22     	; 0x6ec <vfprintf+0xc8>
 6d6:	83 32       	cpi	r24, 0x23	; 35
 6d8:	69 f4       	brne	.+26     	; 0x6f4 <vfprintf+0xd0>
 6da:	10 61       	ori	r17, 0x10	; 16
 6dc:	2c c0       	rjmp	.+88     	; 0x736 <vfprintf+0x112>
 6de:	8d 32       	cpi	r24, 0x2D	; 45
 6e0:	39 f0       	breq	.+14     	; 0x6f0 <vfprintf+0xcc>
 6e2:	80 33       	cpi	r24, 0x30	; 48
 6e4:	39 f4       	brne	.+14     	; 0x6f4 <vfprintf+0xd0>
 6e6:	11 60       	ori	r17, 0x01	; 1
 6e8:	26 c0       	rjmp	.+76     	; 0x736 <vfprintf+0x112>
 6ea:	12 60       	ori	r17, 0x02	; 2
 6ec:	14 60       	ori	r17, 0x04	; 4
 6ee:	23 c0       	rjmp	.+70     	; 0x736 <vfprintf+0x112>
 6f0:	18 60       	ori	r17, 0x08	; 8
 6f2:	21 c0       	rjmp	.+66     	; 0x736 <vfprintf+0x112>
 6f4:	17 fd       	sbrc	r17, 7
 6f6:	29 c0       	rjmp	.+82     	; 0x74a <vfprintf+0x126>
 6f8:	90 ed       	ldi	r25, 0xD0	; 208
 6fa:	98 0f       	add	r25, r24
 6fc:	9a 30       	cpi	r25, 0x0A	; 10
 6fe:	78 f4       	brcc	.+30     	; 0x71e <vfprintf+0xfa>
 700:	16 ff       	sbrs	r17, 6
 702:	06 c0       	rjmp	.+12     	; 0x710 <vfprintf+0xec>
 704:	aa e0       	ldi	r26, 0x0A	; 10
 706:	ba 9e       	mul	r11, r26
 708:	90 0d       	add	r25, r0
 70a:	11 24       	eor	r1, r1
 70c:	b9 2e       	mov	r11, r25
 70e:	13 c0       	rjmp	.+38     	; 0x736 <vfprintf+0x112>
 710:	ea e0       	ldi	r30, 0x0A	; 10
 712:	0e 9f       	mul	r16, r30
 714:	90 0d       	add	r25, r0
 716:	11 24       	eor	r1, r1
 718:	09 2f       	mov	r16, r25
 71a:	10 62       	ori	r17, 0x20	; 32
 71c:	0c c0       	rjmp	.+24     	; 0x736 <vfprintf+0x112>
 71e:	8e 32       	cpi	r24, 0x2E	; 46
 720:	21 f4       	brne	.+8      	; 0x72a <vfprintf+0x106>
 722:	16 fd       	sbrc	r17, 6
 724:	85 c1       	rjmp	.+778    	; 0xa30 <__stack+0x131>
 726:	10 64       	ori	r17, 0x40	; 64
 728:	06 c0       	rjmp	.+12     	; 0x736 <vfprintf+0x112>
 72a:	8c 36       	cpi	r24, 0x6C	; 108
 72c:	11 f4       	brne	.+4      	; 0x732 <vfprintf+0x10e>
 72e:	10 68       	ori	r17, 0x80	; 128
 730:	02 c0       	rjmp	.+4      	; 0x736 <vfprintf+0x112>
 732:	88 36       	cpi	r24, 0x68	; 104
 734:	51 f4       	brne	.+20     	; 0x74a <vfprintf+0x126>
 736:	f3 01       	movw	r30, r6
 738:	84 91       	lpm	r24, Z
 73a:	87 fc       	sbrc	r8, 7
 73c:	80 81       	ld	r24, Z
 73e:	ff ef       	ldi	r31, 0xFF	; 255
 740:	6f 1a       	sub	r6, r31
 742:	7f 0a       	sbc	r7, r31
 744:	8f 0a       	sbc	r8, r31
 746:	81 11       	cpse	r24, r1
 748:	bf cf       	rjmp	.-130    	; 0x6c8 <vfprintf+0xa4>
 74a:	98 2f       	mov	r25, r24
 74c:	9f 7d       	andi	r25, 0xDF	; 223
 74e:	95 54       	subi	r25, 0x45	; 69
 750:	93 30       	cpi	r25, 0x03	; 3
 752:	28 f4       	brcc	.+10     	; 0x75e <vfprintf+0x13a>
 754:	24 e0       	ldi	r18, 0x04	; 4
 756:	e2 0e       	add	r14, r18
 758:	f1 1c       	adc	r15, r1
 75a:	99 82       	std	Y+1, r9	; 0x01
 75c:	0f c0       	rjmp	.+30     	; 0x77c <vfprintf+0x158>
 75e:	83 36       	cpi	r24, 0x63	; 99
 760:	31 f0       	breq	.+12     	; 0x76e <vfprintf+0x14a>
 762:	83 37       	cpi	r24, 0x73	; 115
 764:	91 f0       	breq	.+36     	; 0x78a <vfprintf+0x166>
 766:	83 35       	cpi	r24, 0x53	; 83
 768:	09 f0       	breq	.+2      	; 0x76c <vfprintf+0x148>
 76a:	63 c0       	rjmp	.+198    	; 0x832 <__DATA_REGION_LENGTH__+0x32>
 76c:	27 c0       	rjmp	.+78     	; 0x7bc <vfprintf+0x198>
 76e:	f7 01       	movw	r30, r14
 770:	80 81       	ld	r24, Z
 772:	89 83       	std	Y+1, r24	; 0x01
 774:	97 01       	movw	r18, r14
 776:	2e 5f       	subi	r18, 0xFE	; 254
 778:	3f 4f       	sbci	r19, 0xFF	; 255
 77a:	79 01       	movw	r14, r18
 77c:	28 88       	ldd	r2, Y+16	; 0x10
 77e:	39 88       	ldd	r3, Y+17	; 0x11
 780:	4a 88       	ldd	r4, Y+18	; 0x12
 782:	aa 24       	eor	r10, r10
 784:	a3 94       	inc	r10
 786:	b1 2c       	mov	r11, r1
 788:	17 c0       	rjmp	.+46     	; 0x7b8 <vfprintf+0x194>
 78a:	a7 01       	movw	r20, r14
 78c:	4d 5f       	subi	r20, 0xFD	; 253
 78e:	5f 4f       	sbci	r21, 0xFF	; 255
 790:	5f 87       	std	Y+15, r21	; 0x0f
 792:	4e 87       	std	Y+14, r20	; 0x0e
 794:	f7 01       	movw	r30, r14
 796:	20 80       	ld	r2, Z
 798:	31 80       	ldd	r3, Z+1	; 0x01
 79a:	42 80       	ldd	r4, Z+2	; 0x02
 79c:	16 ff       	sbrs	r17, 6
 79e:	03 c0       	rjmp	.+6      	; 0x7a6 <vfprintf+0x182>
 7a0:	4b 2d       	mov	r20, r11
 7a2:	50 e0       	ldi	r21, 0x00	; 0
 7a4:	02 c0       	rjmp	.+4      	; 0x7aa <vfprintf+0x186>
 7a6:	4f ef       	ldi	r20, 0xFF	; 255
 7a8:	5f ef       	ldi	r21, 0xFF	; 255
 7aa:	84 2d       	mov	r24, r4
 7ac:	b1 01       	movw	r22, r2
 7ae:	0e 94 c6 09 	call	0x138c	; 0x138c <strnlen>
 7b2:	5c 01       	movw	r10, r24
 7b4:	ee 84       	ldd	r14, Y+14	; 0x0e
 7b6:	ff 84       	ldd	r15, Y+15	; 0x0f
 7b8:	1f 77       	andi	r17, 0x7F	; 127
 7ba:	18 c0       	rjmp	.+48     	; 0x7ec <vfprintf+0x1c8>
 7bc:	97 01       	movw	r18, r14
 7be:	2d 5f       	subi	r18, 0xFD	; 253
 7c0:	3f 4f       	sbci	r19, 0xFF	; 255
 7c2:	3f 87       	std	Y+15, r19	; 0x0f
 7c4:	2e 87       	std	Y+14, r18	; 0x0e
 7c6:	f7 01       	movw	r30, r14
 7c8:	20 80       	ld	r2, Z
 7ca:	31 80       	ldd	r3, Z+1	; 0x01
 7cc:	42 80       	ldd	r4, Z+2	; 0x02
 7ce:	16 ff       	sbrs	r17, 6
 7d0:	03 c0       	rjmp	.+6      	; 0x7d8 <vfprintf+0x1b4>
 7d2:	4b 2d       	mov	r20, r11
 7d4:	50 e0       	ldi	r21, 0x00	; 0
 7d6:	02 c0       	rjmp	.+4      	; 0x7dc <vfprintf+0x1b8>
 7d8:	4f ef       	ldi	r20, 0xFF	; 255
 7da:	5f ef       	ldi	r21, 0xFF	; 255
 7dc:	84 2d       	mov	r24, r4
 7de:	b1 01       	movw	r22, r2
 7e0:	0e 94 c6 09 	call	0x138c	; 0x138c <strnlen>
 7e4:	5c 01       	movw	r10, r24
 7e6:	10 68       	ori	r17, 0x80	; 128
 7e8:	ee 84       	ldd	r14, Y+14	; 0x0e
 7ea:	ff 84       	ldd	r15, Y+15	; 0x0f
 7ec:	13 fd       	sbrc	r17, 3
 7ee:	1d c0       	rjmp	.+58     	; 0x82a <__DATA_REGION_LENGTH__+0x2a>
 7f0:	80 2f       	mov	r24, r16
 7f2:	90 e0       	ldi	r25, 0x00	; 0
 7f4:	a8 16       	cp	r10, r24
 7f6:	b9 06       	cpc	r11, r25
 7f8:	c0 f4       	brcc	.+48     	; 0x82a <__DATA_REGION_LENGTH__+0x2a>
 7fa:	b6 01       	movw	r22, r12
 7fc:	80 e2       	ldi	r24, 0x20	; 32
 7fe:	90 e0       	ldi	r25, 0x00	; 0
 800:	0e 94 95 08 	call	0x112a	; 0x112a <fputc>
 804:	01 50       	subi	r16, 0x01	; 1
 806:	f4 cf       	rjmp	.-24     	; 0x7f0 <vfprintf+0x1cc>
 808:	f1 01       	movw	r30, r2
 80a:	84 91       	lpm	r24, Z
 80c:	47 fc       	sbrc	r4, 7
 80e:	80 81       	ld	r24, Z
 810:	ff ef       	ldi	r31, 0xFF	; 255
 812:	2f 1a       	sub	r2, r31
 814:	3f 0a       	sbc	r3, r31
 816:	4f 0a       	sbc	r4, r31
 818:	b6 01       	movw	r22, r12
 81a:	90 e0       	ldi	r25, 0x00	; 0
 81c:	0e 94 95 08 	call	0x112a	; 0x112a <fputc>
 820:	01 11       	cpse	r16, r1
 822:	01 50       	subi	r16, 0x01	; 1
 824:	21 e0       	ldi	r18, 0x01	; 1
 826:	a2 1a       	sub	r10, r18
 828:	b1 08       	sbc	r11, r1
 82a:	a1 14       	cp	r10, r1
 82c:	b1 04       	cpc	r11, r1
 82e:	61 f7       	brne	.-40     	; 0x808 <__DATA_REGION_LENGTH__+0x8>
 830:	f5 c0       	rjmp	.+490    	; 0xa1c <__stack+0x11d>
 832:	84 36       	cpi	r24, 0x64	; 100
 834:	11 f0       	breq	.+4      	; 0x83a <__DATA_REGION_LENGTH__+0x3a>
 836:	89 36       	cpi	r24, 0x69	; 105
 838:	71 f5       	brne	.+92     	; 0x896 <__DATA_REGION_LENGTH__+0x96>
 83a:	f7 01       	movw	r30, r14
 83c:	17 ff       	sbrs	r17, 7
 83e:	08 c0       	rjmp	.+16     	; 0x850 <__DATA_REGION_LENGTH__+0x50>
 840:	60 81       	ld	r22, Z
 842:	71 81       	ldd	r23, Z+1	; 0x01
 844:	82 81       	ldd	r24, Z+2	; 0x02
 846:	93 81       	ldd	r25, Z+3	; 0x03
 848:	97 01       	movw	r18, r14
 84a:	2c 5f       	subi	r18, 0xFC	; 252
 84c:	3f 4f       	sbci	r19, 0xFF	; 255
 84e:	09 c0       	rjmp	.+18     	; 0x862 <__DATA_REGION_LENGTH__+0x62>
 850:	60 81       	ld	r22, Z
 852:	71 81       	ldd	r23, Z+1	; 0x01
 854:	07 2e       	mov	r0, r23
 856:	00 0c       	add	r0, r0
 858:	88 0b       	sbc	r24, r24
 85a:	99 0b       	sbc	r25, r25
 85c:	97 01       	movw	r18, r14
 85e:	2e 5f       	subi	r18, 0xFE	; 254
 860:	3f 4f       	sbci	r19, 0xFF	; 255
 862:	79 01       	movw	r14, r18
 864:	1f 76       	andi	r17, 0x6F	; 111
 866:	31 2e       	mov	r3, r17
 868:	97 ff       	sbrs	r25, 7
 86a:	0a c0       	rjmp	.+20     	; 0x880 <__DATA_REGION_LENGTH__+0x80>
 86c:	90 95       	com	r25
 86e:	80 95       	com	r24
 870:	70 95       	com	r23
 872:	61 95       	neg	r22
 874:	7f 4f       	sbci	r23, 0xFF	; 255
 876:	8f 4f       	sbci	r24, 0xFF	; 255
 878:	9f 4f       	sbci	r25, 0xFF	; 255
 87a:	31 2f       	mov	r19, r17
 87c:	30 68       	ori	r19, 0x80	; 128
 87e:	33 2e       	mov	r3, r19
 880:	2a e0       	ldi	r18, 0x0A	; 10
 882:	30 e0       	ldi	r19, 0x00	; 0
 884:	ae 01       	movw	r20, r28
 886:	4f 5f       	subi	r20, 0xFF	; 255
 888:	5f 4f       	sbci	r21, 0xFF	; 255
 88a:	0e 94 37 08 	call	0x106e	; 0x106e <__ultoa_invert>
 88e:	48 2e       	mov	r4, r24
 890:	4c 85       	ldd	r20, Y+12	; 0x0c
 892:	44 1a       	sub	r4, r20
 894:	4a c0       	rjmp	.+148    	; 0x92a <__stack+0x2b>
 896:	85 37       	cpi	r24, 0x75	; 117
 898:	29 f4       	brne	.+10     	; 0x8a4 <__DATA_REGION_LENGTH__+0xa4>
 89a:	1f 7e       	andi	r17, 0xEF	; 239
 89c:	a1 2e       	mov	r10, r17
 89e:	2a e0       	ldi	r18, 0x0A	; 10
 8a0:	30 e0       	ldi	r19, 0x00	; 0
 8a2:	25 c0       	rjmp	.+74     	; 0x8ee <__DATA_REGION_LENGTH__+0xee>
 8a4:	51 2f       	mov	r21, r17
 8a6:	59 7f       	andi	r21, 0xF9	; 249
 8a8:	a5 2e       	mov	r10, r21
 8aa:	8f 36       	cpi	r24, 0x6F	; 111
 8ac:	c1 f0       	breq	.+48     	; 0x8de <__DATA_REGION_LENGTH__+0xde>
 8ae:	18 f4       	brcc	.+6      	; 0x8b6 <__DATA_REGION_LENGTH__+0xb6>
 8b0:	88 35       	cpi	r24, 0x58	; 88
 8b2:	79 f0       	breq	.+30     	; 0x8d2 <__DATA_REGION_LENGTH__+0xd2>
 8b4:	bd c0       	rjmp	.+378    	; 0xa30 <__stack+0x131>
 8b6:	80 37       	cpi	r24, 0x70	; 112
 8b8:	19 f0       	breq	.+6      	; 0x8c0 <__DATA_REGION_LENGTH__+0xc0>
 8ba:	88 37       	cpi	r24, 0x78	; 120
 8bc:	21 f0       	breq	.+8      	; 0x8c6 <__DATA_REGION_LENGTH__+0xc6>
 8be:	b8 c0       	rjmp	.+368    	; 0xa30 <__stack+0x131>
 8c0:	85 2f       	mov	r24, r21
 8c2:	80 61       	ori	r24, 0x10	; 16
 8c4:	a8 2e       	mov	r10, r24
 8c6:	a4 fe       	sbrs	r10, 4
 8c8:	0d c0       	rjmp	.+26     	; 0x8e4 <__DATA_REGION_LENGTH__+0xe4>
 8ca:	9a 2d       	mov	r25, r10
 8cc:	94 60       	ori	r25, 0x04	; 4
 8ce:	a9 2e       	mov	r10, r25
 8d0:	09 c0       	rjmp	.+18     	; 0x8e4 <__DATA_REGION_LENGTH__+0xe4>
 8d2:	14 ff       	sbrs	r17, 4
 8d4:	0a c0       	rjmp	.+20     	; 0x8ea <__DATA_REGION_LENGTH__+0xea>
 8d6:	a5 2f       	mov	r26, r21
 8d8:	a6 60       	ori	r26, 0x06	; 6
 8da:	aa 2e       	mov	r10, r26
 8dc:	06 c0       	rjmp	.+12     	; 0x8ea <__DATA_REGION_LENGTH__+0xea>
 8de:	28 e0       	ldi	r18, 0x08	; 8
 8e0:	30 e0       	ldi	r19, 0x00	; 0
 8e2:	05 c0       	rjmp	.+10     	; 0x8ee <__DATA_REGION_LENGTH__+0xee>
 8e4:	20 e1       	ldi	r18, 0x10	; 16
 8e6:	30 e0       	ldi	r19, 0x00	; 0
 8e8:	02 c0       	rjmp	.+4      	; 0x8ee <__DATA_REGION_LENGTH__+0xee>
 8ea:	20 e1       	ldi	r18, 0x10	; 16
 8ec:	32 e0       	ldi	r19, 0x02	; 2
 8ee:	f7 01       	movw	r30, r14
 8f0:	a7 fe       	sbrs	r10, 7
 8f2:	08 c0       	rjmp	.+16     	; 0x904 <__stack+0x5>
 8f4:	60 81       	ld	r22, Z
 8f6:	71 81       	ldd	r23, Z+1	; 0x01
 8f8:	82 81       	ldd	r24, Z+2	; 0x02
 8fa:	93 81       	ldd	r25, Z+3	; 0x03
 8fc:	a7 01       	movw	r20, r14
 8fe:	4c 5f       	subi	r20, 0xFC	; 252
 900:	5f 4f       	sbci	r21, 0xFF	; 255
 902:	07 c0       	rjmp	.+14     	; 0x912 <__stack+0x13>
 904:	60 81       	ld	r22, Z
 906:	71 81       	ldd	r23, Z+1	; 0x01
 908:	80 e0       	ldi	r24, 0x00	; 0
 90a:	90 e0       	ldi	r25, 0x00	; 0
 90c:	a7 01       	movw	r20, r14
 90e:	4e 5f       	subi	r20, 0xFE	; 254
 910:	5f 4f       	sbci	r21, 0xFF	; 255
 912:	7a 01       	movw	r14, r20
 914:	ae 01       	movw	r20, r28
 916:	4f 5f       	subi	r20, 0xFF	; 255
 918:	5f 4f       	sbci	r21, 0xFF	; 255
 91a:	0e 94 37 08 	call	0x106e	; 0x106e <__ultoa_invert>
 91e:	48 2e       	mov	r4, r24
 920:	5c 85       	ldd	r21, Y+12	; 0x0c
 922:	45 1a       	sub	r4, r21
 924:	8a 2d       	mov	r24, r10
 926:	8f 77       	andi	r24, 0x7F	; 127
 928:	38 2e       	mov	r3, r24
 92a:	36 fe       	sbrs	r3, 6
 92c:	0d c0       	rjmp	.+26     	; 0x948 <__stack+0x49>
 92e:	93 2d       	mov	r25, r3
 930:	9e 7f       	andi	r25, 0xFE	; 254
 932:	a9 2e       	mov	r10, r25
 934:	4b 14       	cp	r4, r11
 936:	58 f4       	brcc	.+22     	; 0x94e <__stack+0x4f>
 938:	34 fe       	sbrs	r3, 4
 93a:	0b c0       	rjmp	.+22     	; 0x952 <__stack+0x53>
 93c:	32 fc       	sbrc	r3, 2
 93e:	09 c0       	rjmp	.+18     	; 0x952 <__stack+0x53>
 940:	a3 2d       	mov	r26, r3
 942:	ae 7e       	andi	r26, 0xEE	; 238
 944:	aa 2e       	mov	r10, r26
 946:	05 c0       	rjmp	.+10     	; 0x952 <__stack+0x53>
 948:	14 2d       	mov	r17, r4
 94a:	a3 2c       	mov	r10, r3
 94c:	03 c0       	rjmp	.+6      	; 0x954 <__stack+0x55>
 94e:	14 2d       	mov	r17, r4
 950:	01 c0       	rjmp	.+2      	; 0x954 <__stack+0x55>
 952:	1b 2d       	mov	r17, r11
 954:	a4 fe       	sbrs	r10, 4
 956:	0e c0       	rjmp	.+28     	; 0x974 <__stack+0x75>
 958:	fe 01       	movw	r30, r28
 95a:	e4 0d       	add	r30, r4
 95c:	f1 1d       	adc	r31, r1
 95e:	80 81       	ld	r24, Z
 960:	80 33       	cpi	r24, 0x30	; 48
 962:	21 f4       	brne	.+8      	; 0x96c <__stack+0x6d>
 964:	ea 2d       	mov	r30, r10
 966:	e9 7e       	andi	r30, 0xE9	; 233
 968:	ae 2e       	mov	r10, r30
 96a:	08 c0       	rjmp	.+16     	; 0x97c <__stack+0x7d>
 96c:	a2 fe       	sbrs	r10, 2
 96e:	05 c0       	rjmp	.+10     	; 0x97a <__stack+0x7b>
 970:	1e 5f       	subi	r17, 0xFE	; 254
 972:	04 c0       	rjmp	.+8      	; 0x97c <__stack+0x7d>
 974:	8a 2d       	mov	r24, r10
 976:	86 78       	andi	r24, 0x86	; 134
 978:	09 f0       	breq	.+2      	; 0x97c <__stack+0x7d>
 97a:	1f 5f       	subi	r17, 0xFF	; 255
 97c:	a3 fc       	sbrc	r10, 3
 97e:	11 c0       	rjmp	.+34     	; 0x9a2 <__stack+0xa3>
 980:	a0 fe       	sbrs	r10, 0
 982:	06 c0       	rjmp	.+12     	; 0x990 <__stack+0x91>
 984:	10 17       	cp	r17, r16
 986:	88 f4       	brcc	.+34     	; 0x9aa <__stack+0xab>
 988:	04 0d       	add	r16, r4
 98a:	b0 2e       	mov	r11, r16
 98c:	b1 1a       	sub	r11, r17
 98e:	0e c0       	rjmp	.+28     	; 0x9ac <__stack+0xad>
 990:	10 17       	cp	r17, r16
 992:	60 f4       	brcc	.+24     	; 0x9ac <__stack+0xad>
 994:	b6 01       	movw	r22, r12
 996:	80 e2       	ldi	r24, 0x20	; 32
 998:	90 e0       	ldi	r25, 0x00	; 0
 99a:	0e 94 95 08 	call	0x112a	; 0x112a <fputc>
 99e:	1f 5f       	subi	r17, 0xFF	; 255
 9a0:	f7 cf       	rjmp	.-18     	; 0x990 <__stack+0x91>
 9a2:	10 17       	cp	r17, r16
 9a4:	18 f4       	brcc	.+6      	; 0x9ac <__stack+0xad>
 9a6:	01 1b       	sub	r16, r17
 9a8:	02 c0       	rjmp	.+4      	; 0x9ae <__stack+0xaf>
 9aa:	b4 2c       	mov	r11, r4
 9ac:	00 e0       	ldi	r16, 0x00	; 0
 9ae:	a4 fe       	sbrs	r10, 4
 9b0:	10 c0       	rjmp	.+32     	; 0x9d2 <__stack+0xd3>
 9b2:	b6 01       	movw	r22, r12
 9b4:	80 e3       	ldi	r24, 0x30	; 48
 9b6:	90 e0       	ldi	r25, 0x00	; 0
 9b8:	0e 94 95 08 	call	0x112a	; 0x112a <fputc>
 9bc:	a2 fe       	sbrs	r10, 2
 9be:	17 c0       	rjmp	.+46     	; 0x9ee <__stack+0xef>
 9c0:	a1 fc       	sbrc	r10, 1
 9c2:	03 c0       	rjmp	.+6      	; 0x9ca <__stack+0xcb>
 9c4:	88 e7       	ldi	r24, 0x78	; 120
 9c6:	90 e0       	ldi	r25, 0x00	; 0
 9c8:	02 c0       	rjmp	.+4      	; 0x9ce <__stack+0xcf>
 9ca:	88 e5       	ldi	r24, 0x58	; 88
 9cc:	90 e0       	ldi	r25, 0x00	; 0
 9ce:	b6 01       	movw	r22, r12
 9d0:	0c c0       	rjmp	.+24     	; 0x9ea <__stack+0xeb>
 9d2:	8a 2d       	mov	r24, r10
 9d4:	86 78       	andi	r24, 0x86	; 134
 9d6:	59 f0       	breq	.+22     	; 0x9ee <__stack+0xef>
 9d8:	a1 fe       	sbrs	r10, 1
 9da:	02 c0       	rjmp	.+4      	; 0x9e0 <__stack+0xe1>
 9dc:	8b e2       	ldi	r24, 0x2B	; 43
 9de:	01 c0       	rjmp	.+2      	; 0x9e2 <__stack+0xe3>
 9e0:	80 e2       	ldi	r24, 0x20	; 32
 9e2:	a7 fc       	sbrc	r10, 7
 9e4:	8d e2       	ldi	r24, 0x2D	; 45
 9e6:	b6 01       	movw	r22, r12
 9e8:	90 e0       	ldi	r25, 0x00	; 0
 9ea:	0e 94 95 08 	call	0x112a	; 0x112a <fputc>
 9ee:	4b 14       	cp	r4, r11
 9f0:	38 f4       	brcc	.+14     	; 0xa00 <__stack+0x101>
 9f2:	b6 01       	movw	r22, r12
 9f4:	80 e3       	ldi	r24, 0x30	; 48
 9f6:	90 e0       	ldi	r25, 0x00	; 0
 9f8:	0e 94 95 08 	call	0x112a	; 0x112a <fputc>
 9fc:	ba 94       	dec	r11
 9fe:	f7 cf       	rjmp	.-18     	; 0x9ee <__stack+0xef>
 a00:	4a 94       	dec	r4
 a02:	e1 e0       	ldi	r30, 0x01	; 1
 a04:	f0 e0       	ldi	r31, 0x00	; 0
 a06:	ec 0f       	add	r30, r28
 a08:	fd 1f       	adc	r31, r29
 a0a:	e4 0d       	add	r30, r4
 a0c:	f1 1d       	adc	r31, r1
 a0e:	80 81       	ld	r24, Z
 a10:	b6 01       	movw	r22, r12
 a12:	90 e0       	ldi	r25, 0x00	; 0
 a14:	0e 94 95 08 	call	0x112a	; 0x112a <fputc>
 a18:	41 10       	cpse	r4, r1
 a1a:	f2 cf       	rjmp	.-28     	; 0xa00 <__stack+0x101>
 a1c:	00 23       	and	r16, r16
 a1e:	09 f4       	brne	.+2      	; 0xa22 <__stack+0x123>
 a20:	30 ce       	rjmp	.-928    	; 0x682 <vfprintf+0x5e>
 a22:	b6 01       	movw	r22, r12
 a24:	80 e2       	ldi	r24, 0x20	; 32
 a26:	90 e0       	ldi	r25, 0x00	; 0
 a28:	0e 94 95 08 	call	0x112a	; 0x112a <fputc>
 a2c:	01 50       	subi	r16, 0x01	; 1
 a2e:	f6 cf       	rjmp	.-20     	; 0xa1c <__stack+0x11d>
 a30:	f6 01       	movw	r30, r12
 a32:	87 81       	ldd	r24, Z+7	; 0x07
 a34:	90 85       	ldd	r25, Z+8	; 0x08
 a36:	02 c0       	rjmp	.+4      	; 0xa3c <__stack+0x13d>
 a38:	8f ef       	ldi	r24, 0xFF	; 255
 a3a:	9f ef       	ldi	r25, 0xFF	; 255
 a3c:	62 96       	adiw	r28, 0x12	; 18
 a3e:	0f b6       	in	r0, 0x3f	; 63
 a40:	f8 94       	cli
 a42:	de bf       	out	0x3e, r29	; 62
 a44:	0f be       	out	0x3f, r0	; 63
 a46:	cd bf       	out	0x3d, r28	; 61
 a48:	df 91       	pop	r29
 a4a:	cf 91       	pop	r28
 a4c:	1f 91       	pop	r17
 a4e:	0f 91       	pop	r16
 a50:	ff 90       	pop	r15
 a52:	ef 90       	pop	r14
 a54:	df 90       	pop	r13
 a56:	cf 90       	pop	r12
 a58:	bf 90       	pop	r11
 a5a:	af 90       	pop	r10
 a5c:	9f 90       	pop	r9
 a5e:	8f 90       	pop	r8
 a60:	7f 90       	pop	r7
 a62:	6f 90       	pop	r6
 a64:	4f 90       	pop	r4
 a66:	3f 90       	pop	r3
 a68:	2f 90       	pop	r2
 a6a:	08 95       	ret

Disassembly of section .text.avrlibc:

0000138c <strnlen>:
    138c:	cf 92       	push	r12
    138e:	df 92       	push	r13
    1390:	ef 92       	push	r14
    1392:	6b 01       	movw	r12, r22
    1394:	e8 2e       	mov	r14, r24
    1396:	a8 2f       	mov	r26, r24
    1398:	cb 01       	movw	r24, r22
    139a:	41 15       	cp	r20, r1
    139c:	51 05       	cpc	r21, r1
    139e:	31 f4       	brne	.+12     	; 0x13ac <strnlen+0x20>
    13a0:	8c 19       	sub	r24, r12
    13a2:	9d 09       	sbc	r25, r13
    13a4:	ef 90       	pop	r14
    13a6:	df 90       	pop	r13
    13a8:	cf 90       	pop	r12
    13aa:	08 95       	ret
    13ac:	fc 01       	movw	r30, r24
    13ae:	24 91       	lpm	r18, Z
    13b0:	a7 fd       	sbrc	r26, 7
    13b2:	20 81       	ld	r18, Z
    13b4:	22 23       	and	r18, r18
    13b6:	a1 f3       	breq	.-24     	; 0x13a0 <strnlen+0x14>
    13b8:	01 96       	adiw	r24, 0x01	; 1
    13ba:	a1 1d       	adc	r26, r1
    13bc:	41 50       	subi	r20, 0x01	; 1
    13be:	51 09       	sbc	r21, r1
    13c0:	ec cf       	rjmp	.-40     	; 0x139a <strnlen+0xe>

Disassembly of section .text.avrlibc:

0000112a <fputc>:
    112a:	0f 93       	push	r16
    112c:	1f 93       	push	r17
    112e:	cf 93       	push	r28
    1130:	df 93       	push	r29
    1132:	fb 01       	movw	r30, r22
    1134:	24 81       	ldd	r18, Z+4	; 0x04
    1136:	21 fd       	sbrc	r18, 1
    1138:	03 c0       	rjmp	.+6      	; 0x1140 <fputc+0x16>
    113a:	8f ef       	ldi	r24, 0xFF	; 255
    113c:	9f ef       	ldi	r25, 0xFF	; 255
    113e:	2c c0       	rjmp	.+88     	; 0x1198 <fputc+0x6e>
    1140:	22 ff       	sbrs	r18, 2
    1142:	16 c0       	rjmp	.+44     	; 0x1170 <fputc+0x46>
    1144:	47 81       	ldd	r20, Z+7	; 0x07
    1146:	50 85       	ldd	r21, Z+8	; 0x08
    1148:	25 81       	ldd	r18, Z+5	; 0x05
    114a:	36 81       	ldd	r19, Z+6	; 0x06
    114c:	42 17       	cp	r20, r18
    114e:	53 07       	cpc	r21, r19
    1150:	44 f4       	brge	.+16     	; 0x1162 <fputc+0x38>
    1152:	a0 81       	ld	r26, Z
    1154:	b1 81       	ldd	r27, Z+1	; 0x01
    1156:	9d 01       	movw	r18, r26
    1158:	2f 5f       	subi	r18, 0xFF	; 255
    115a:	3f 4f       	sbci	r19, 0xFF	; 255
    115c:	31 83       	std	Z+1, r19	; 0x01
    115e:	20 83       	st	Z, r18
    1160:	8c 93       	st	X, r24
    1162:	27 81       	ldd	r18, Z+7	; 0x07
    1164:	30 85       	ldd	r19, Z+8	; 0x08
    1166:	2f 5f       	subi	r18, 0xFF	; 255
    1168:	3f 4f       	sbci	r19, 0xFF	; 255
    116a:	30 87       	std	Z+8, r19	; 0x08
    116c:	27 83       	std	Z+7, r18	; 0x07
    116e:	14 c0       	rjmp	.+40     	; 0x1198 <fputc+0x6e>
    1170:	8b 01       	movw	r16, r22
    1172:	ec 01       	movw	r28, r24
    1174:	fb 01       	movw	r30, r22
    1176:	01 84       	ldd	r0, Z+9	; 0x09
    1178:	f2 85       	ldd	r31, Z+10	; 0x0a
    117a:	e0 2d       	mov	r30, r0
    117c:	09 95       	icall
    117e:	89 2b       	or	r24, r25
    1180:	e1 f6       	brne	.-72     	; 0x113a <fputc+0x10>
    1182:	d8 01       	movw	r26, r16
    1184:	17 96       	adiw	r26, 0x07	; 7
    1186:	8d 91       	ld	r24, X+
    1188:	9c 91       	ld	r25, X
    118a:	18 97       	sbiw	r26, 0x08	; 8
    118c:	01 96       	adiw	r24, 0x01	; 1
    118e:	18 96       	adiw	r26, 0x08	; 8
    1190:	9c 93       	st	X, r25
    1192:	8e 93       	st	-X, r24
    1194:	17 97       	sbiw	r26, 0x07	; 7
    1196:	ce 01       	movw	r24, r28
    1198:	df 91       	pop	r29
    119a:	cf 91       	pop	r28
    119c:	1f 91       	pop	r17
    119e:	0f 91       	pop	r16
    11a0:	08 95       	ret

Disassembly of section .text.avrlibc:

0000106e <__ultoa_invert>:
    106e:	fa 01       	movw	r30, r20
    1070:	aa 27       	eor	r26, r26
    1072:	28 30       	cpi	r18, 0x08	; 8
    1074:	51 f1       	breq	.+84     	; 0x10ca <__ultoa_invert+0x5c>
    1076:	20 31       	cpi	r18, 0x10	; 16
    1078:	81 f1       	breq	.+96     	; 0x10da <__ultoa_invert+0x6c>
    107a:	e8 94       	clt
    107c:	6f 93       	push	r22
    107e:	6e 7f       	andi	r22, 0xFE	; 254
    1080:	6e 5f       	subi	r22, 0xFE	; 254
    1082:	7f 4f       	sbci	r23, 0xFF	; 255
    1084:	8f 4f       	sbci	r24, 0xFF	; 255
    1086:	9f 4f       	sbci	r25, 0xFF	; 255
    1088:	af 4f       	sbci	r26, 0xFF	; 255
    108a:	b1 e0       	ldi	r27, 0x01	; 1
    108c:	3e d0       	rcall	.+124    	; 0x110a <__ultoa_invert+0x9c>
    108e:	b4 e0       	ldi	r27, 0x04	; 4
    1090:	3c d0       	rcall	.+120    	; 0x110a <__ultoa_invert+0x9c>
    1092:	67 0f       	add	r22, r23
    1094:	78 1f       	adc	r23, r24
    1096:	89 1f       	adc	r24, r25
    1098:	9a 1f       	adc	r25, r26
    109a:	a1 1d       	adc	r26, r1
    109c:	68 0f       	add	r22, r24
    109e:	79 1f       	adc	r23, r25
    10a0:	8a 1f       	adc	r24, r26
    10a2:	91 1d       	adc	r25, r1
    10a4:	a1 1d       	adc	r26, r1
    10a6:	6a 0f       	add	r22, r26
    10a8:	71 1d       	adc	r23, r1
    10aa:	81 1d       	adc	r24, r1
    10ac:	91 1d       	adc	r25, r1
    10ae:	a1 1d       	adc	r26, r1
    10b0:	20 d0       	rcall	.+64     	; 0x10f2 <__ultoa_invert+0x84>
    10b2:	09 f4       	brne	.+2      	; 0x10b6 <__ultoa_invert+0x48>
    10b4:	68 94       	set
    10b6:	3f 91       	pop	r19
    10b8:	2a e0       	ldi	r18, 0x0A	; 10
    10ba:	26 9f       	mul	r18, r22
    10bc:	11 24       	eor	r1, r1
    10be:	30 19       	sub	r19, r0
    10c0:	30 5d       	subi	r19, 0xD0	; 208
    10c2:	31 93       	st	Z+, r19
    10c4:	de f6       	brtc	.-74     	; 0x107c <__ultoa_invert+0xe>
    10c6:	cf 01       	movw	r24, r30
    10c8:	08 95       	ret
    10ca:	46 2f       	mov	r20, r22
    10cc:	47 70       	andi	r20, 0x07	; 7
    10ce:	40 5d       	subi	r20, 0xD0	; 208
    10d0:	41 93       	st	Z+, r20
    10d2:	b3 e0       	ldi	r27, 0x03	; 3
    10d4:	0f d0       	rcall	.+30     	; 0x10f4 <__ultoa_invert+0x86>
    10d6:	c9 f7       	brne	.-14     	; 0x10ca <__ultoa_invert+0x5c>
    10d8:	f6 cf       	rjmp	.-20     	; 0x10c6 <__ultoa_invert+0x58>
    10da:	46 2f       	mov	r20, r22
    10dc:	4f 70       	andi	r20, 0x0F	; 15
    10de:	40 5d       	subi	r20, 0xD0	; 208
    10e0:	4a 33       	cpi	r20, 0x3A	; 58
    10e2:	18 f0       	brcs	.+6      	; 0x10ea <__ultoa_invert+0x7c>
    10e4:	49 5d       	subi	r20, 0xD9	; 217
    10e6:	31 fd       	sbrc	r19, 1
    10e8:	40 52       	subi	r20, 0x20	; 32
    10ea:	41 93       	st	Z+, r20
    10ec:	02 d0       	rcall	.+4      	; 0x10f2 <__ultoa_invert+0x84>
    10ee:	a9 f7       	brne	.-22     	; 0x10da <__ultoa_invert+0x6c>
    10f0:	ea cf       	rjmp	.-44     	; 0x10c6 <__ultoa_invert+0x58>
    10f2:	b4 e0       	ldi	r27, 0x04	; 4
    10f4:	a6 95       	lsr	r26
    10f6:	97 95       	ror	r25
    10f8:	87 95       	ror	r24
    10fa:	77 95       	ror	r23
    10fc:	67 95       	ror	r22
    10fe:	ba 95       	dec	r27
    1100:	c9 f7       	brne	.-14     	; 0x10f4 <__ultoa_invert+0x86>
    1102:	00 97       	sbiw	r24, 0x00	; 0
    1104:	61 05       	cpc	r22, r1
    1106:	71 05       	cpc	r23, r1
    1108:	08 95       	ret
    110a:	9b 01       	movw	r18, r22
    110c:	ac 01       	movw	r20, r24
    110e:	0a 2e       	mov	r0, r26
    1110:	06 94       	lsr	r0
    1112:	57 95       	ror	r21
    1114:	47 95       	ror	r20
    1116:	37 95       	ror	r19
    1118:	27 95       	ror	r18
    111a:	ba 95       	dec	r27
    111c:	c9 f7       	brne	.-14     	; 0x1110 <__ultoa_invert+0xa2>
    111e:	62 0f       	add	r22, r18
    1120:	73 1f       	adc	r23, r19
    1122:	84 1f       	adc	r24, r20
    1124:	95 1f       	adc	r25, r21
    1126:	a0 1d       	adc	r26, r0
    1128:	08 95       	ret

Disassembly of section .text.libgcc.prologue:

00001354 <__prologue_saves__>:
    1354:	2f 92       	push	r2
    1356:	3f 92       	push	r3
    1358:	4f 92       	push	r4
    135a:	5f 92       	push	r5
    135c:	6f 92       	push	r6
    135e:	7f 92       	push	r7
    1360:	8f 92       	push	r8
    1362:	9f 92       	push	r9
    1364:	af 92       	push	r10
    1366:	bf 92       	push	r11
    1368:	cf 92       	push	r12
    136a:	df 92       	push	r13
    136c:	ef 92       	push	r14
    136e:	ff 92       	push	r15
    1370:	0f 93       	push	r16
    1372:	1f 93       	push	r17
    1374:	cf 93       	push	r28
    1376:	df 93       	push	r29
    1378:	cd b7       	in	r28, 0x3d	; 61
    137a:	de b7       	in	r29, 0x3e	; 62
    137c:	ca 1b       	sub	r28, r26
    137e:	db 0b       	sbc	r29, r27
    1380:	0f b6       	in	r0, 0x3f	; 63
    1382:	f8 94       	cli
    1384:	de bf       	out	0x3e, r29	; 62
    1386:	0f be       	out	0x3f, r0	; 63
    1388:	cd bf       	out	0x3d, r28	; 61
    138a:	09 94       	ijmp

Disassembly of section .text.libgcc.prologue:

000013c2 <__epilogue_restores__>:
    13c2:	2a 88       	ldd	r2, Y+18	; 0x12
    13c4:	39 88       	ldd	r3, Y+17	; 0x11
    13c6:	48 88       	ldd	r4, Y+16	; 0x10
    13c8:	5f 84       	ldd	r5, Y+15	; 0x0f
    13ca:	6e 84       	ldd	r6, Y+14	; 0x0e
    13cc:	7d 84       	ldd	r7, Y+13	; 0x0d
    13ce:	8c 84       	ldd	r8, Y+12	; 0x0c
    13d0:	9b 84       	ldd	r9, Y+11	; 0x0b
    13d2:	aa 84       	ldd	r10, Y+10	; 0x0a
    13d4:	b9 84       	ldd	r11, Y+9	; 0x09
    13d6:	c8 84       	ldd	r12, Y+8	; 0x08
    13d8:	df 80       	ldd	r13, Y+7	; 0x07
    13da:	ee 80       	ldd	r14, Y+6	; 0x06
    13dc:	fd 80       	ldd	r15, Y+5	; 0x05
    13de:	0c 81       	ldd	r16, Y+4	; 0x04
    13e0:	1b 81       	ldd	r17, Y+3	; 0x03
    13e2:	aa 81       	ldd	r26, Y+2	; 0x02
    13e4:	b9 81       	ldd	r27, Y+1	; 0x01
    13e6:	ce 0f       	add	r28, r30
    13e8:	d1 1d       	adc	r29, r1
    13ea:	0f b6       	in	r0, 0x3f	; 63
    13ec:	f8 94       	cli
    13ee:	de bf       	out	0x3e, r29	; 62
    13f0:	0f be       	out	0x3f, r0	; 63
    13f2:	cd bf       	out	0x3d, r28	; 61
    13f4:	ed 01       	movw	r28, r26
    13f6:	08 95       	ret
